
user/vm-test:     file format elf64-littleriscv


Disassembly of section .text:

0000000000000000 <_entry>:
   0:	00001117          	auipc	sp,0x1
   4:	01010113          	addi	sp,sp,16 # 1010 <stack0>
   8:	6505                	lui	a0,0x1
   a:	f14025f3          	csrr	a1,mhartid
   e:	0585                	addi	a1,a1,1
  10:	02b50533          	mul	a0,a0,a1
  14:	912a                	add	sp,sp,a0
  16:	006000ef          	jal	ra,1c <start>

000000000000001a <spin>:
  1a:	a001                	j	1a <spin>

000000000000001c <start>:
  1c:	1141                	addi	sp,sp,-16
  1e:	e406                	sd	ra,8(sp)
  20:	e022                	sd	s0,0(sp)
  22:	0800                	addi	s0,sp,16
  24:	00000097          	auipc	ra,0x0
  28:	262080e7          	jalr	610(ra) # 286 <assert_linker_symbols>
  2c:	f14027f3          	csrr	a5,mhartid
  30:	2781                	sext.w	a5,a5
  32:	823e                	mv	tp,a5
  34:	300027f3          	csrr	a5,mstatus
  38:	7779                	lui	a4,0xffffe
  3a:	7ff70713          	addi	a4,a4,2047 # ffffffffffffe7ff <ustack+0xfffffffffffed71f>
  3e:	8ff9                	and	a5,a5,a4
  40:	6705                	lui	a4,0x1
  42:	80070713          	addi	a4,a4,-2048 # 800 <process_entry+0x3e4>
  46:	8fd9                	or	a5,a5,a4
  48:	30079073          	csrw	mstatus,a5
  4c:	4781                	li	a5,0
  4e:	18079073          	csrw	satp,a5
  52:	00000797          	auipc	a5,0x0
  56:	3b878793          	addi	a5,a5,952 # 40a <kernel_entry>
  5a:	34179073          	csrw	mepc,a5
  5e:	67c1                	lui	a5,0x10
  60:	17fd                	addi	a5,a5,-1 # ffff <kstack+0x6f1f>
  62:	30279073          	csrw	medeleg,a5
  66:	30379073          	csrw	mideleg,a5
  6a:	104027f3          	csrr	a5,sie
  6e:	2227e793          	ori	a5,a5,546
  72:	10479073          	csrw	sie,a5
  76:	30200073          	mret
  7a:	60a2                	ld	ra,8(sp)
  7c:	6402                	ld	s0,0(sp)
  7e:	0141                	addi	sp,sp,16
  80:	8082                	ret

0000000000000082 <ramdiskrw>:
  82:	1101                	addi	sp,sp,-32
  84:	ec06                	sd	ra,24(sp)
  86:	e822                	sd	s0,16(sp)
  88:	e426                	sd	s1,8(sp)
  8a:	1000                	addi	s0,sp,32
  8c:	84aa                	mv	s1,a0
  8e:	4558                	lw	a4,12(a0)
  90:	7cf00793          	li	a5,1999
  94:	02e7ea63          	bltu	a5,a4,c8 <userret+0x2c>
  98:	44dc                	lw	a5,12(s1)
  9a:	00a7979b          	slliw	a5,a5,0xa
  9e:	1782                	slli	a5,a5,0x20
  a0:	9381                	srli	a5,a5,0x20
  a2:	40000613          	li	a2,1024
  a6:	02100593          	li	a1,33
  aa:	05ea                	slli	a1,a1,0x1a
  ac:	95be                	add	a1,a1,a5
  ae:	02848513          	addi	a0,s1,40
  b2:	00000097          	auipc	ra,0x0
  b6:	084080e7          	jalr	132(ra) # 136 <memmove>
  ba:	4785                	li	a5,1
  bc:	c09c                	sw	a5,0(s1)
  be:	60e2                	ld	ra,24(sp)
  c0:	6442                	ld	s0,16(sp)
  c2:	64a2                	ld	s1,8(sp)
  c4:	6105                	addi	sp,sp,32
  c6:	8082                	ret
  c8:	00000517          	auipc	a0,0x0
  cc:	36850513          	addi	a0,a0,872 # 430 <process_entry+0x14>
  d0:	00000097          	auipc	ra,0x0
  d4:	1ae080e7          	jalr	430(ra) # 27e <panic>
  d8:	b7c1                	j	98 <ramdiskrw+0x16>

00000000000000da <memset>:
  da:	1141                	addi	sp,sp,-16
  dc:	e422                	sd	s0,8(sp)
  de:	0800                	addi	s0,sp,16
  e0:	ca19                	beqz	a2,f6 <memset+0x1c>
  e2:	87aa                	mv	a5,a0
  e4:	1602                	slli	a2,a2,0x20
  e6:	9201                	srli	a2,a2,0x20
  e8:	00a60733          	add	a4,a2,a0
  ec:	00b78023          	sb	a1,0(a5)
  f0:	0785                	addi	a5,a5,1
  f2:	fee79de3          	bne	a5,a4,ec <memset+0x12>
  f6:	6422                	ld	s0,8(sp)
  f8:	0141                	addi	sp,sp,16
  fa:	8082                	ret

00000000000000fc <memcmp>:
  fc:	1141                	addi	sp,sp,-16
  fe:	e422                	sd	s0,8(sp)
 100:	0800                	addi	s0,sp,16
 102:	ca05                	beqz	a2,132 <memcmp+0x36>
 104:	fff6069b          	addiw	a3,a2,-1
 108:	1682                	slli	a3,a3,0x20
 10a:	9281                	srli	a3,a3,0x20
 10c:	0685                	addi	a3,a3,1
 10e:	96aa                	add	a3,a3,a0
 110:	00054783          	lbu	a5,0(a0)
 114:	0005c703          	lbu	a4,0(a1)
 118:	00e79863          	bne	a5,a4,128 <memcmp+0x2c>
 11c:	0505                	addi	a0,a0,1
 11e:	0585                	addi	a1,a1,1
 120:	fed518e3          	bne	a0,a3,110 <memcmp+0x14>
 124:	4501                	li	a0,0
 126:	a019                	j	12c <memcmp+0x30>
 128:	40e7853b          	subw	a0,a5,a4
 12c:	6422                	ld	s0,8(sp)
 12e:	0141                	addi	sp,sp,16
 130:	8082                	ret
 132:	4501                	li	a0,0
 134:	bfe5                	j	12c <memcmp+0x30>

0000000000000136 <memmove>:
 136:	1141                	addi	sp,sp,-16
 138:	e422                	sd	s0,8(sp)
 13a:	0800                	addi	s0,sp,16
 13c:	c205                	beqz	a2,15c <memmove+0x26>
 13e:	02a5e263          	bltu	a1,a0,162 <memmove+0x2c>
 142:	1602                	slli	a2,a2,0x20
 144:	9201                	srli	a2,a2,0x20
 146:	00c587b3          	add	a5,a1,a2
 14a:	872a                	mv	a4,a0
 14c:	0585                	addi	a1,a1,1
 14e:	0705                	addi	a4,a4,1
 150:	fff5c683          	lbu	a3,-1(a1)
 154:	fed70fa3          	sb	a3,-1(a4)
 158:	fef59ae3          	bne	a1,a5,14c <memmove+0x16>
 15c:	6422                	ld	s0,8(sp)
 15e:	0141                	addi	sp,sp,16
 160:	8082                	ret
 162:	02061693          	slli	a3,a2,0x20
 166:	9281                	srli	a3,a3,0x20
 168:	00d58733          	add	a4,a1,a3
 16c:	fce57be3          	bgeu	a0,a4,142 <memmove+0xc>
 170:	96aa                	add	a3,a3,a0
 172:	fff6079b          	addiw	a5,a2,-1
 176:	1782                	slli	a5,a5,0x20
 178:	9381                	srli	a5,a5,0x20
 17a:	fff7c793          	not	a5,a5
 17e:	97ba                	add	a5,a5,a4
 180:	177d                	addi	a4,a4,-1
 182:	16fd                	addi	a3,a3,-1
 184:	00074603          	lbu	a2,0(a4)
 188:	00c68023          	sb	a2,0(a3)
 18c:	fee79ae3          	bne	a5,a4,180 <memmove+0x4a>
 190:	b7f1                	j	15c <memmove+0x26>

0000000000000192 <memcpy>:
 192:	1141                	addi	sp,sp,-16
 194:	e406                	sd	ra,8(sp)
 196:	e022                	sd	s0,0(sp)
 198:	0800                	addi	s0,sp,16
 19a:	00000097          	auipc	ra,0x0
 19e:	f9c080e7          	jalr	-100(ra) # 136 <memmove>
 1a2:	60a2                	ld	ra,8(sp)
 1a4:	6402                	ld	s0,0(sp)
 1a6:	0141                	addi	sp,sp,16
 1a8:	8082                	ret

00000000000001aa <strncmp>:
 1aa:	1141                	addi	sp,sp,-16
 1ac:	e422                	sd	s0,8(sp)
 1ae:	0800                	addi	s0,sp,16
 1b0:	ce11                	beqz	a2,1cc <strncmp+0x22>
 1b2:	00054783          	lbu	a5,0(a0)
 1b6:	cf89                	beqz	a5,1d0 <strncmp+0x26>
 1b8:	0005c703          	lbu	a4,0(a1)
 1bc:	00f71a63          	bne	a4,a5,1d0 <strncmp+0x26>
 1c0:	367d                	addiw	a2,a2,-1
 1c2:	0505                	addi	a0,a0,1
 1c4:	0585                	addi	a1,a1,1
 1c6:	f675                	bnez	a2,1b2 <strncmp+0x8>
 1c8:	4501                	li	a0,0
 1ca:	a809                	j	1dc <strncmp+0x32>
 1cc:	4501                	li	a0,0
 1ce:	a039                	j	1dc <strncmp+0x32>
 1d0:	ca09                	beqz	a2,1e2 <strncmp+0x38>
 1d2:	00054503          	lbu	a0,0(a0)
 1d6:	0005c783          	lbu	a5,0(a1)
 1da:	9d1d                	subw	a0,a0,a5
 1dc:	6422                	ld	s0,8(sp)
 1de:	0141                	addi	sp,sp,16
 1e0:	8082                	ret
 1e2:	4501                	li	a0,0
 1e4:	bfe5                	j	1dc <strncmp+0x32>

00000000000001e6 <strncpy>:
 1e6:	1141                	addi	sp,sp,-16
 1e8:	e422                	sd	s0,8(sp)
 1ea:	0800                	addi	s0,sp,16
 1ec:	87aa                	mv	a5,a0
 1ee:	86b2                	mv	a3,a2
 1f0:	367d                	addiw	a2,a2,-1
 1f2:	00d05963          	blez	a3,204 <strncpy+0x1e>
 1f6:	0785                	addi	a5,a5,1
 1f8:	0005c703          	lbu	a4,0(a1)
 1fc:	fee78fa3          	sb	a4,-1(a5)
 200:	0585                	addi	a1,a1,1
 202:	f775                	bnez	a4,1ee <strncpy+0x8>
 204:	873e                	mv	a4,a5
 206:	9fb5                	addw	a5,a5,a3
 208:	37fd                	addiw	a5,a5,-1
 20a:	00c05963          	blez	a2,21c <strncpy+0x36>
 20e:	0705                	addi	a4,a4,1
 210:	fe070fa3          	sb	zero,-1(a4)
 214:	40e786bb          	subw	a3,a5,a4
 218:	fed04be3          	bgtz	a3,20e <strncpy+0x28>
 21c:	6422                	ld	s0,8(sp)
 21e:	0141                	addi	sp,sp,16
 220:	8082                	ret

0000000000000222 <safestrcpy>:
 222:	1141                	addi	sp,sp,-16
 224:	e422                	sd	s0,8(sp)
 226:	0800                	addi	s0,sp,16
 228:	02c05363          	blez	a2,24e <safestrcpy+0x2c>
 22c:	fff6069b          	addiw	a3,a2,-1
 230:	1682                	slli	a3,a3,0x20
 232:	9281                	srli	a3,a3,0x20
 234:	96ae                	add	a3,a3,a1
 236:	87aa                	mv	a5,a0
 238:	00d58963          	beq	a1,a3,24a <safestrcpy+0x28>
 23c:	0585                	addi	a1,a1,1
 23e:	0785                	addi	a5,a5,1
 240:	fff5c703          	lbu	a4,-1(a1)
 244:	fee78fa3          	sb	a4,-1(a5)
 248:	fb65                	bnez	a4,238 <safestrcpy+0x16>
 24a:	00078023          	sb	zero,0(a5)
 24e:	6422                	ld	s0,8(sp)
 250:	0141                	addi	sp,sp,16
 252:	8082                	ret

0000000000000254 <strlen>:
 254:	1141                	addi	sp,sp,-16
 256:	e422                	sd	s0,8(sp)
 258:	0800                	addi	s0,sp,16
 25a:	00054783          	lbu	a5,0(a0)
 25e:	cf91                	beqz	a5,27a <strlen+0x26>
 260:	0505                	addi	a0,a0,1
 262:	87aa                	mv	a5,a0
 264:	86be                	mv	a3,a5
 266:	0785                	addi	a5,a5,1
 268:	fff7c703          	lbu	a4,-1(a5)
 26c:	ff65                	bnez	a4,264 <strlen+0x10>
 26e:	40a6853b          	subw	a0,a3,a0
 272:	2505                	addiw	a0,a0,1
 274:	6422                	ld	s0,8(sp)
 276:	0141                	addi	sp,sp,16
 278:	8082                	ret
 27a:	4501                	li	a0,0
 27c:	bfe5                	j	274 <strlen+0x20>

000000000000027e <panic>:
 27e:	1141                	addi	sp,sp,-16
 280:	e422                	sd	s0,8(sp)
 282:	0800                	addi	s0,sp,16
 284:	a001                	j	284 <panic+0x6>

0000000000000286 <assert_linker_symbols>:
 286:	1141                	addi	sp,sp,-16
 288:	e422                	sd	s0,8(sp)
 28a:	0800                	addi	s0,sp,16
 28c:	4501                	li	a0,0
 28e:	6422                	ld	s0,8(sp)
 290:	0141                	addi	sp,sp,16
 292:	8082                	ret

0000000000000294 <assert_stack_address>:
 294:	1141                	addi	sp,sp,-16
 296:	e422                	sd	s0,8(sp)
 298:	0800                	addi	s0,sp,16
 29a:	4505                	li	a0,1
 29c:	6422                	ld	s0,8(sp)
 29e:	0141                	addi	sp,sp,16
 2a0:	8082                	ret

00000000000002a2 <read_kernel_elf>:
 2a2:	715d                	addi	sp,sp,-80
 2a4:	e486                	sd	ra,72(sp)
 2a6:	e0a2                	sd	s0,64(sp)
 2a8:	0880                	addi	s0,sp,80
 2aa:	04000613          	li	a2,64
 2ae:	02100593          	li	a1,33
 2b2:	05ea                	slli	a1,a1,0x1a
 2b4:	fb040513          	addi	a0,s0,-80
 2b8:	00000097          	auipc	ra,0x0
 2bc:	e7e080e7          	jalr	-386(ra) # 136 <memmove>
 2c0:	fb042703          	lw	a4,-80(s0)
 2c4:	464c47b7          	lui	a5,0x464c4
 2c8:	57f78793          	addi	a5,a5,1407 # 464c457f <ustack+0x464b349f>
 2cc:	00f71863          	bne	a4,a5,2dc <read_kernel_elf+0x3a>
 2d0:	fc843503          	ld	a0,-56(s0)
 2d4:	60a6                	ld	ra,72(sp)
 2d6:	6406                	ld	s0,64(sp)
 2d8:	6161                	addi	sp,sp,80
 2da:	8082                	ret
 2dc:	4501                	li	a0,0
 2de:	00000097          	auipc	ra,0x0
 2e2:	fa0080e7          	jalr	-96(ra) # 27e <panic>
 2e6:	b7ed                	j	2d0 <read_kernel_elf+0x2e>

00000000000002e8 <kalloc>:
 2e8:	00001717          	auipc	a4,0x1
 2ec:	d1872703          	lw	a4,-744(a4) # 1000 <alloc_pages>
 2f0:	40000793          	li	a5,1024
 2f4:	02f70063          	beq	a4,a5,314 <kalloc+0x2c>
 2f8:	00001797          	auipc	a5,0x1
 2fc:	d0878793          	addi	a5,a5,-760 # 1000 <alloc_pages>
 300:	4388                	lw	a0,0(a5)
 302:	0015071b          	addiw	a4,a0,1
 306:	c398                	sw	a4,0(a5)
 308:	00c5151b          	slliw	a0,a0,0xc
 30c:	4785                	li	a5,1
 30e:	07fe                	slli	a5,a5,0x1f
 310:	953e                	add	a0,a0,a5
 312:	8082                	ret
 314:	1141                	addi	sp,sp,-16
 316:	e406                	sd	ra,8(sp)
 318:	e022                	sd	s0,0(sp)
 31a:	0800                	addi	s0,sp,16
 31c:	00000517          	auipc	a0,0x0
 320:	13450513          	addi	a0,a0,308 # 450 <process_entry+0x34>
 324:	00000097          	auipc	ra,0x0
 328:	f5a080e7          	jalr	-166(ra) # 27e <panic>
 32c:	00001797          	auipc	a5,0x1
 330:	cd478793          	addi	a5,a5,-812 # 1000 <alloc_pages>
 334:	4388                	lw	a0,0(a5)
 336:	0015071b          	addiw	a4,a0,1
 33a:	c398                	sw	a4,0(a5)
 33c:	00c5151b          	slliw	a0,a0,0xc
 340:	4785                	li	a5,1
 342:	07fe                	slli	a5,a5,0x1f
 344:	953e                	add	a0,a0,a5
 346:	60a2                	ld	ra,8(sp)
 348:	6402                	ld	s0,0(sp)
 34a:	0141                	addi	sp,sp,16
 34c:	8082                	ret

000000000000034e <usertrapret>:
 34e:	1141                	addi	sp,sp,-16
 350:	e422                	sd	s0,8(sp)
 352:	0800                	addi	s0,sp,16
 354:	00009717          	auipc	a4,0x9
 358:	cbc70713          	addi	a4,a4,-836 # 9010 <p>
 35c:	633c                	ld	a5,64(a4)
 35e:	0000a697          	auipc	a3,0xa
 362:	d8268693          	addi	a3,a3,-638 # a0e0 <kstack+0x1000>
 366:	e794                	sd	a3,8(a5)
 368:	633c                	ld	a5,64(a4)
 36a:	00000697          	auipc	a3,0x0
 36e:	03868693          	addi	a3,a3,56 # 3a2 <usertrap>
 372:	eb94                	sd	a3,16(a5)
 374:	633c                	ld	a5,64(a4)
 376:	6b94                	ld	a3,16(a5)
 378:	10569073          	csrw	stvec,a3
 37c:	8692                	mv	a3,tp
 37e:	f394                	sd	a3,32(a5)
 380:	100027f3          	csrr	a5,sstatus
 384:	eff7f793          	andi	a5,a5,-257
 388:	0207e793          	ori	a5,a5,32
 38c:	10079073          	csrw	sstatus,a5
 390:	633c                	ld	a5,64(a4)
 392:	6f9c                	ld	a5,24(a5)
 394:	14179073          	csrw	sepc,a5
 398:	10200073          	sret
 39c:	6422                	ld	s0,8(sp)
 39e:	0141                	addi	sp,sp,16
 3a0:	8082                	ret

00000000000003a2 <usertrap>:
 3a2:	1141                	addi	sp,sp,-16
 3a4:	e406                	sd	ra,8(sp)
 3a6:	e022                	sd	s0,0(sp)
 3a8:	0800                	addi	s0,sp,16
 3aa:	141027f3          	csrr	a5,sepc
 3ae:	0791                	addi	a5,a5,4
 3b0:	00009717          	auipc	a4,0x9
 3b4:	ca073703          	ld	a4,-864(a4) # 9050 <p+0x40>
 3b8:	ef1c                	sd	a5,24(a4)
 3ba:	00000097          	auipc	ra,0x0
 3be:	f94080e7          	jalr	-108(ra) # 34e <usertrapret>
 3c2:	60a2                	ld	ra,8(sp)
 3c4:	6402                	ld	s0,0(sp)
 3c6:	0141                	addi	sp,sp,16
 3c8:	8082                	ret

00000000000003ca <create_process>:
 3ca:	1141                	addi	sp,sp,-16
 3cc:	e406                	sd	ra,8(sp)
 3ce:	e022                	sd	s0,0(sp)
 3d0:	0800                	addi	s0,sp,16
 3d2:	00000097          	auipc	ra,0x0
 3d6:	f16080e7          	jalr	-234(ra) # 2e8 <kalloc>
 3da:	00009797          	auipc	a5,0x9
 3de:	c3678793          	addi	a5,a5,-970 # 9010 <p>
 3e2:	e3a8                	sd	a0,64(a5)
 3e4:	00000717          	auipc	a4,0x0
 3e8:	03870713          	addi	a4,a4,56 # 41c <process_entry>
 3ec:	ed18                	sd	a4,24(a0)
 3ee:	63bc                	ld	a5,64(a5)
 3f0:	00012717          	auipc	a4,0x12
 3f4:	cf070713          	addi	a4,a4,-784 # 120e0 <ustack+0x1000>
 3f8:	ffb8                	sd	a4,120(a5)
 3fa:	00000097          	auipc	ra,0x0
 3fe:	f54080e7          	jalr	-172(ra) # 34e <usertrapret>
 402:	60a2                	ld	ra,8(sp)
 404:	6402                	ld	s0,0(sp)
 406:	0141                	addi	sp,sp,16
 408:	8082                	ret

000000000000040a <kernel_entry>:
 40a:	1141                	addi	sp,sp,-16
 40c:	e406                	sd	ra,8(sp)
 40e:	e022                	sd	s0,0(sp)
 410:	0800                	addi	s0,sp,16
 412:	00000097          	auipc	ra,0x0
 416:	fb8080e7          	jalr	-72(ra) # 3ca <create_process>
 41a:	a001                	j	41a <kernel_entry+0x10>

000000000000041c <process_entry>:
 41c:	1141                	addi	sp,sp,-16
 41e:	e422                	sd	s0,8(sp)
 420:	0800                	addi	s0,sp,16
 422:	00000073          	ecall
 426:	10200073          	sret
 42a:	6422                	ld	s0,8(sp)
 42c:	0141                	addi	sp,sp,16
 42e:	8082                	ret

Disassembly of section .rodata:

0000000000000430 <.rodata>:
     430:	6172                	ld	sp,280(sp)
     432:	646d                	lui	s0,0x1b
     434:	7369                	lui	t1,0xffffa
     436:	3a77726b          	.4byte	0x3a77726b
     43a:	6220                	ld	s0,64(a2)
     43c:	6f6c                	ld	a1,216(a4)
     43e:	6f6e6b63          	bltu	t3,s6,b34 <process_entry+0x718>
     442:	7420                	ld	s0,104(s0)
     444:	62206f6f          	jal	t5,6a66 <stack0+0x5a56>
     448:	6769                	lui	a4,0x1a
     44a:	0000                	unimp
     44c:	0000                	unimp
     44e:	0000                	unimp
     450:	6170                	ld	a2,192(a0)
     452:	696e                	ld	s2,216(sp)
     454:	00002163          	.4byte	0x2163
	...

Disassembly of section .bss:

0000000000001000 <alloc_pages>:
	...

0000000000001010 <stack0>:
	...

0000000000009010 <p>:
	...

00000000000090e0 <kstack>:
	...

00000000000110e0 <ustack>:
	...

Disassembly of section .riscv.attributes:

0000000000000000 <.riscv.attributes>:
   0:	3841                	addiw	a6,a6,-16
   2:	0000                	unimp
   4:	7200                	ld	s0,32(a2)
   6:	7369                	lui	t1,0xffffa
   8:	01007663          	bgeu	zero,a6,14 <_entry+0x14>
   c:	002e                	c.slli	zero,0xb
   e:	0000                	unimp
  10:	1004                	addi	s1,sp,32
  12:	7205                	lui	tp,0xfffe1
  14:	3676                	fld	fa2,376(sp)
  16:	6934                	ld	a3,80(a0)
  18:	7032                	.2byte	0x7032
  1a:	5f30                	lw	a2,120(a4)
  1c:	326d                	addiw	tp,tp,-5 # fffffffffffe0ffb <ustack+0xfffffffffffcff1b>
  1e:	3070                	fld	fa2,224(s0)
  20:	615f 7032 5f30      	.byte	0x5f, 0x61, 0x32, 0x70, 0x30, 0x5f
  26:	3266                	fld	ft4,120(sp)
  28:	3070                	fld	fa2,224(s0)
  2a:	645f 7032 5f30      	.byte	0x5f, 0x64, 0x32, 0x70, 0x30, 0x5f
  30:	30703263          	.4byte	0x30703263
  34:	0800                	addi	s0,sp,16
  36:	0a01                	addi	s4,s4,0
  38:	0b              	Address 0x0000000000000038 is out of bounds.


Disassembly of section .comment:

0000000000000000 <.comment>:
   0:	3a434347          	fmsub.d	ft6,ft6,ft4,ft7,rmm
   4:	2820                	fld	fs0,80(s0)
   6:	65653267          	.4byte	0x65653267
   a:	6535                	lui	a0,0xd
   c:	3334                	fld	fa3,96(a4)
   e:	3030                	fld	fa2,96(s0)
  10:	3831                	addiw	a6,a6,-20
  12:	642d                	lui	s0,0xb
  14:	7269                	lui	tp,0xffffa
  16:	7974                	ld	a3,240(a0)
  18:	2029                	.2byte	0x2029
  1a:	3231                	addiw	tp,tp,-20 # ffffffffffff9fec <ustack+0xfffffffffffe8f0c>
  1c:	322e                	fld	ft4,232(sp)
  1e:	302e                	fld	ft0,232(sp)
	...

Disassembly of section trampsec:

0000000000000000 <trampoline>:
   0:	14051073          	csrw	sscratch,a0
   4:	02000537          	lui	a0,0x2000
   8:	357d                	addiw	a0,a0,-1 # 1ffffff <ustack+0x1feef1f>
   a:	0536                	slli	a0,a0,0xd
   c:	02153423          	sd	ra,40(a0)
  10:	02253823          	sd	sp,48(a0)
  14:	02353c23          	sd	gp,56(a0)
  18:	04453023          	sd	tp,64(a0)
  1c:	04553423          	sd	t0,72(a0)
  20:	04653823          	sd	t1,80(a0)
  24:	04753c23          	sd	t2,88(a0)
  28:	f120                	sd	s0,96(a0)
  2a:	f524                	sd	s1,104(a0)
  2c:	fd2c                	sd	a1,120(a0)
  2e:	e150                	sd	a2,128(a0)
  30:	e554                	sd	a3,136(a0)
  32:	e958                	sd	a4,144(a0)
  34:	ed5c                	sd	a5,152(a0)
  36:	0b053023          	sd	a6,160(a0)
  3a:	0b153423          	sd	a7,168(a0)
  3e:	0b253823          	sd	s2,176(a0)
  42:	0b353c23          	sd	s3,184(a0)
  46:	0d453023          	sd	s4,192(a0)
  4a:	0d553423          	sd	s5,200(a0)
  4e:	0d653823          	sd	s6,208(a0)
  52:	0d753c23          	sd	s7,216(a0)
  56:	0f853023          	sd	s8,224(a0)
  5a:	0f953423          	sd	s9,232(a0)
  5e:	0fa53823          	sd	s10,240(a0)
  62:	0fb53c23          	sd	s11,248(a0)
  66:	11c53023          	sd	t3,256(a0)
  6a:	11d53423          	sd	t4,264(a0)
  6e:	11e53823          	sd	t5,272(a0)
  72:	11f53c23          	sd	t6,280(a0)
  76:	140022f3          	csrr	t0,sscratch
  7a:	06553823          	sd	t0,112(a0)
  7e:	00853103          	ld	sp,8(a0)
  82:	02053203          	ld	tp,32(a0)
  86:	01053283          	ld	t0,16(a0)
  8a:	00053303          	ld	t1,0(a0)
  8e:	12000073          	sfence.vma
  92:	18031073          	csrw	satp,t1
  96:	12000073          	sfence.vma
  9a:	8282                	jr	t0

000000000000009c <userret>:
  9c:	12000073          	sfence.vma
  a0:	18051073          	csrw	satp,a0
  a4:	12000073          	sfence.vma
  a8:	02000537          	lui	a0,0x2000
  ac:	357d                	addiw	a0,a0,-1 # 1ffffff <ustack+0x1feef1f>
  ae:	0536                	slli	a0,a0,0xd
  b0:	02853083          	ld	ra,40(a0)
  b4:	03053103          	ld	sp,48(a0)
  b8:	03853183          	ld	gp,56(a0)
  bc:	04053203          	ld	tp,64(a0)
  c0:	04853283          	ld	t0,72(a0)
  c4:	05053303          	ld	t1,80(a0)
  c8:	05853383          	ld	t2,88(a0)
  cc:	7120                	ld	s0,96(a0)
  ce:	7524                	ld	s1,104(a0)
  d0:	7d2c                	ld	a1,120(a0)
  d2:	6150                	ld	a2,128(a0)
  d4:	6554                	ld	a3,136(a0)
  d6:	6958                	ld	a4,144(a0)
  d8:	6d5c                	ld	a5,152(a0)
  da:	0a053803          	ld	a6,160(a0)
  de:	0a853883          	ld	a7,168(a0)
  e2:	0b053903          	ld	s2,176(a0)
  e6:	0b853983          	ld	s3,184(a0)
  ea:	0c053a03          	ld	s4,192(a0)
  ee:	0c853a83          	ld	s5,200(a0)
  f2:	0d053b03          	ld	s6,208(a0)
  f6:	0d853b83          	ld	s7,216(a0)
  fa:	0e053c03          	ld	s8,224(a0)
  fe:	0e853c83          	ld	s9,232(a0)
 102:	0f053d03          	ld	s10,240(a0)
 106:	0f853d83          	ld	s11,248(a0)
 10a:	10053e03          	ld	t3,256(a0)
 10e:	10853e83          	ld	t4,264(a0)
 112:	11053f03          	ld	t5,272(a0)
 116:	11853f83          	ld	t6,280(a0)
 11a:	7928                	ld	a0,112(a0)
 11c:	10200073          	sret

Disassembly of section .debug_info:

0000000000000000 <.debug_info>:
       0:	0366                	slli	t1,t1,0x19
       2:	0000                	unimp
       4:	0002                	c.slli64	zero
       6:	0000                	unimp
       8:	0000                	unimp
       a:	0108                	addi	a0,sp,128
       c:	0085                	addi	ra,ra,1
       e:	0000                	unimp
      10:	410c                	lw	a1,0(a0)
      12:	0000                	unimp
      14:	9800                	.2byte	0x9800
      16:	0001                	nop
      18:	1c00                	addi	s0,sp,560
      1a:	0000                	unimp
      1c:	0000                	unimp
      1e:	0000                	unimp
      20:	8200                	.2byte	0x8200
	...
      2a:	0000                	unimp
      2c:	0200                	addi	s0,sp,256
      2e:	0704                	addi	s1,sp,896
      30:	0065                	c.nop	25
      32:	0000                	unimp
      34:	0202                	c.slli64	tp
      36:	00007207          	.4byte	0x7207
      3a:	0200                	addi	s0,sp,256
      3c:	0801                	addi	a6,a6,0
      3e:	004c                	addi	a1,sp,4
      40:	0000                	unimp
      42:	00001a03          	lh	s4,0(zero) # 0 <_entry>
      46:	0300                	addi	s0,sp,384
      48:	1708                	addi	a0,sp,928
      4a:	004e                	c.slli	zero,0x13
      4c:	0000                	unimp
      4e:	0802                	c.slli64	a6
      50:	00006007          	.4byte	0x6007
      54:	0200                	addi	s0,sp,256
      56:	0508                	addi	a0,sp,640
      58:	0000016f          	jal	sp,58 <start+0x3c>
      5c:	0404                	addi	s1,sp,512
      5e:	6905                	lui	s2,0x1
      60:	746e                	ld	s0,248(sp)
      62:	0200                	addi	s0,sp,256
      64:	0508                	addi	a0,sp,640
      66:	016a                	slli	sp,sp,0x1a
      68:	0000                	unimp
      6a:	1002                	c.slli	zero,0x20
      6c:	8c04                	.2byte	0x8c04
      6e:	0001                	nop
      70:	0500                	addi	s0,sp,640
      72:	0082                	c.slli64	ra
      74:	0000                	unimp
      76:	0082                	c.slli64	ra
      78:	0000                	unimp
      7a:	4e06                	lw	t3,64(sp)
      7c:	0000                	unimp
      7e:	ff00                	sd	s0,56(a4)
      80:	007f                	.2byte	0x7f
      82:	0102                	c.slli64	sp
      84:	5508                	lw	a0,40(a0)
      86:	0000                	unimp
      88:	0700                	addi	s0,sp,896
      8a:	014e                	slli	sp,sp,0x13
      8c:	0000                	unimp
      8e:	1101                	addi	sp,sp,-32
      90:	7125                	addi	sp,sp,-416
      92:	0000                	unimp
      94:	0100                	addi	s0,sp,128
      96:	0910                	addi	a2,sp,144
      98:	00101003          	lh	zero,1(zero) # 1 <_entry+0x1>
      9c:	0000                	unimp
      9e:	0000                	unimp
      a0:	0800                	addi	s0,sp,16
      a2:	0d01                	addi	s10,s10,0
      a4:	0000                	unimp
      a6:	0400                	addi	s0,sp,512
      a8:	1125                	addi	sp,sp,-23
      aa:	0101                	addi	sp,sp,0
      ac:	0109                	addi	sp,sp,2
      ae:	0021                	c.nop	8
      b0:	0000                	unimp
      b2:	1d04                	addi	s1,sp,688
      b4:	0111                	addi	sp,sp,4
      b6:	005c                	addi	a5,sp,4
      b8:	0000                	unimp
      ba:	0a01                	addi	s4,s4,0
      bc:	5501                	li	a0,-32
      be:	0001                	nop
      c0:	0100                	addi	s0,sp,128
      c2:	001c0117          	auipc	sp,0x1c0
      c6:	0000                	unimp
      c8:	0000                	unimp
      ca:	0000                	unimp
      cc:	0082                	c.slli64	ra
	...
      d6:	0000                	unimp
      d8:	6801                	.2byte	0x6801
      da:	0002                	c.slli64	zero
      dc:	0b00                	addi	s0,sp,400
      de:	6469                	lui	s0,0x1a
      e0:	0100                	addi	s0,sp,128
      e2:	071c                	addi	a5,sp,896
      e4:	005c                	addi	a5,sp,4
      e6:	0000                	unimp
      e8:	0074                	addi	a3,sp,12
      ea:	0000                	unimp
      ec:	0100780b          	.4byte	0x100780b
      f0:	1120                	addi	s0,sp,168
      f2:	004e                	c.slli	zero,0x13
      f4:	0000                	unimp
      f6:	00000097          	auipc	ra,0x0
      fa:	510c                	lw	a1,32(a0)
      fc:	2c000003          	lb	zero,704(zero) # 2c0 <read_kernel_elf+0x1e>
     100:	0000                	unimp
     102:	0000                	unimp
     104:	0000                	unimp
     106:	3000                	fld	fs0,32(s0)
     108:	0000                	unimp
     10a:	0000                	unimp
     10c:	0000                	unimp
     10e:	0100                	addi	s0,sp,128
     110:	0c1c                	addi	a5,sp,528
     112:	011c                	addi	a5,sp,128
     114:	0000                	unimp
     116:	5e0d                	li	t3,-29
     118:	00000003          	lb	zero,0(zero) # 0 <_entry>
     11c:	680e                	ld	a6,192(sp)
     11e:	0002                	c.slli64	zero
     120:	3000                	fld	fs0,32(s0)
	...
     12a:	0000                	unimp
     12c:	0100                	addi	s0,sp,128
     12e:	031d                	addi	t1,t1,7 # ffffffffffffa007 <ustack+0xfffffffffffe8f27>
     130:	013e                	slli	sp,sp,0xf
     132:	0000                	unimp
     134:	0002770f          	.4byte	0x2770f
     138:	d300                	sw	s0,32(a4)
     13a:	0000                	unimp
     13c:	0000                	unimp
     13e:	350c                	fld	fa1,40(a0)
     140:	34000003          	lb	zero,832(zero) # 340 <kalloc+0x58>
     144:	0000                	unimp
     146:	0000                	unimp
     148:	0000                	unimp
     14a:	3800                	fld	fs0,48(s0)
     14c:	0000                	unimp
     14e:	0000                	unimp
     150:	0000                	unimp
     152:	0100                	addi	s0,sp,128
     154:	1520                	addi	s0,sp,680
     156:	0160                	addi	s0,sp,140
     158:	0000                	unimp
     15a:	460d                	li	a2,3
     15c:	00000003          	lb	zero,0(zero) # 0 <_entry>
     160:	1c0e                	slli	s8,s8,0x23
     162:	40000003          	lb	zero,1024(zero) # 400 <create_process+0x36>
     166:	0000                	unimp
     168:	0000                	unimp
     16a:	0000                	unimp
     16c:	3000                	fld	fs0,32(s0)
     16e:	0000                	unimp
     170:	0100                	addi	s0,sp,128
     172:	01820323          	sb	s8,6(tp) # 6 <_entry+0x6>
     176:	0000                	unimp
     178:	00032a0f          	.4byte	0x32a0f
     17c:	1100                	addi	s0,sp,160
     17e:	0001                	nop
     180:	0000                	unimp
     182:	830c                	.2byte	0x830c
     184:	0002                	c.slli64	zero
     186:	4c00                	lw	s0,24(s0)
     188:	0000                	unimp
     18a:	0000                	unimp
     18c:	0000                	unimp
     18e:	5200                	lw	s0,32(a2)
     190:	0000                	unimp
     192:	0000                	unimp
     194:	0000                	unimp
     196:	0100                	addi	s0,sp,128
     198:	0326                	slli	t1,t1,0x9
     19a:	01a8                	addi	a0,sp,200
     19c:	0000                	unimp
     19e:	0002910f          	.4byte	0x2910f
     1a2:	3a00                	fld	fs0,48(a2)
     1a4:	0001                	nop
     1a6:	0000                	unimp
     1a8:	030c                	addi	a1,sp,384
     1aa:	52000003          	lb	zero,1312(zero) # 520 <process_entry+0x104>
     1ae:	0000                	unimp
     1b0:	0000                	unimp
     1b2:	0000                	unimp
     1b4:	5e00                	lw	s0,56(a2)
     1b6:	0000                	unimp
     1b8:	0000                	unimp
     1ba:	0000                	unimp
     1bc:	0100                	addi	s0,sp,128
     1be:	0329                	addi	t1,t1,10
     1c0:	01ca                	slli	gp,gp,0x12
     1c2:	0000                	unimp
     1c4:	1110                	addi	a2,sp,160
     1c6:	00000003          	lb	zero,0(zero) # 0 <_entry>
     1ca:	b50c                	fsd	fa1,40(a0)
     1cc:	0002                	c.slli64	zero
     1ce:	5e00                	lw	s0,56(a2)
     1d0:	0000                	unimp
     1d2:	0000                	unimp
     1d4:	0000                	unimp
     1d6:	6600                	ld	s0,8(a2)
     1d8:	0000                	unimp
     1da:	0000                	unimp
     1dc:	0000                	unimp
     1de:	0100                	addi	s0,sp,128
     1e0:	032c                	addi	a1,sp,392
     1e2:	01f0                	addi	a2,sp,204
     1e4:	0000                	unimp
     1e6:	0002c30f          	.4byte	0x2c30f
     1ea:	5e00                	lw	s0,56(a2)
     1ec:	0001                	nop
     1ee:	0000                	unimp
     1f0:	9c0c                	.2byte	0x9c0c
     1f2:	0002                	c.slli64	zero
     1f4:	6600                	ld	s0,8(a2)
     1f6:	0000                	unimp
     1f8:	0000                	unimp
     1fa:	0000                	unimp
     1fc:	6a00                	ld	s0,16(a2)
     1fe:	0000                	unimp
     200:	0000                	unimp
     202:	0000                	unimp
     204:	0100                	addi	s0,sp,128
     206:	032d                	addi	t1,t1,11
     208:	0216                	slli	tp,tp,0x5
     20a:	0000                	unimp
     20c:	0002aa0f          	.4byte	0x2aa0f
     210:	8400                	.2byte	0x8400
     212:	0001                	nop
     214:	0000                	unimp
     216:	e70c                	sd	a1,8(a4)
     218:	0002                	c.slli64	zero
     21a:	6a00                	ld	s0,16(a2)
     21c:	0000                	unimp
     21e:	0000                	unimp
     220:	0000                	unimp
     222:	6e00                	ld	s0,24(a2)
     224:	0000                	unimp
     226:	0000                	unimp
     228:	0000                	unimp
     22a:	0100                	addi	s0,sp,128
     22c:	092e                	slli	s2,s2,0xb
     22e:	0238                	addi	a4,sp,264
     230:	0000                	unimp
     232:	f80d                	bnez	s0,164 <memmove+0x2e>
     234:	0002                	c.slli64	zero
     236:	0000                	unimp
     238:	ce0e                	sw	gp,28(sp)
     23a:	0002                	c.slli64	zero
     23c:	6e00                	ld	s0,24(a2)
     23e:	0000                	unimp
     240:	0000                	unimp
     242:	0000                	unimp
     244:	6000                	ld	s0,0(s0)
     246:	0000                	unimp
     248:	0100                	addi	s0,sp,128
     24a:	032e                	slli	t1,t1,0xb
     24c:	025a                	slli	tp,tp,0x16
     24e:	0000                	unimp
     250:	0002dc0f          	.4byte	0x2dc0f
     254:	aa00                	fsd	fs0,16(a2)
     256:	0001                	nop
     258:	0000                	unimp
     25a:	2c11                	addiw	s8,s8,4
     25c:	0000                	unimp
     25e:	0000                	unimp
     260:	0000                	unimp
     262:	ac00                	fsd	fs0,24(s0)
     264:	0000                	unimp
     266:	0000                	unimp
     268:	6512                	ld	a0,256(sp)
     26a:	0001                	nop
     26c:	0200                	addi	s0,sp,256
     26e:	014e                	slli	sp,sp,0x13
     270:	0101                	addi	sp,sp,0 # 1c00c2 <ustack+0x1aefe2>
     272:	00028303          	lb	t1,0(t0)
     276:	1300                	addi	s0,sp,416
     278:	0078                	addi	a4,sp,12
     27a:	4e02                	lw	t3,0(sp)
     27c:	0d01                	addi	s10,s10,0
     27e:	0042                	c.slli	zero,0x10
     280:	0000                	unimp
     282:	1400                	addi	s0,sp,544
     284:	0006                	c.slli	zero,0x1
     286:	0000                	unimp
     288:	e802                	sd	zero,16(sp)
     28a:	0101                	addi	sp,sp,0
     28c:	00029c03          	lh	s8,0(t0)
     290:	1500                	addi	s0,sp,672
     292:	0078                	addi	a4,sp,12
     294:	e802                	sd	zero,16(sp)
     296:	0000420f          	.4byte	0x420f
     29a:	0000                	unimp
     29c:	cf14                	sw	a3,24(a4)
     29e:	0001                	nop
     2a0:	0200                	addi	s0,sp,256
     2a2:	030101b7          	lui	gp,0x3010
     2a6:	02b5                	addi	t0,t0,13
     2a8:	0000                	unimp
     2aa:	7815                	lui	a6,0xfffe5
     2ac:	0200                	addi	s0,sp,256
     2ae:	004212b7          	lui	t0,0x421
     2b2:	0000                	unimp
     2b4:	1400                	addi	s0,sp,544
     2b6:	0178                	addi	a4,sp,140
     2b8:	0000                	unimp
     2ba:	a802                	fsd	ft0,16(sp)
     2bc:	0101                	addi	sp,sp,0
     2be:	0002ce03          	lbu	t3,0(t0) # 421000 <ustack+0x40ff20>
     2c2:	1500                	addi	s0,sp,672
     2c4:	0078                	addi	a4,sp,12
     2c6:	a802                	fsd	ft0,16(sp)
     2c8:	4212                	lw	tp,4(sp)
     2ca:	0000                	unimp
     2cc:	0000                	unimp
     2ce:	0014                	.2byte	0x14
     2d0:	0000                	unimp
     2d2:	0200                	addi	s0,sp,256
     2d4:	0176                	slli	sp,sp,0x1d
     2d6:	0301                	addi	t1,t1,0
     2d8:	000002e7          	jalr	t0,zero # 0 <_entry>
     2dc:	7815                	lui	a6,0xfffe5
     2de:	0200                	addi	s0,sp,256
     2e0:	0e76                	slli	t3,t3,0x1d
     2e2:	0042                	c.slli	zero,0x10
     2e4:	0000                	unimp
     2e6:	1600                	addi	s0,sp,800
     2e8:	005a                	c.slli	zero,0x16
     2ea:	0000                	unimp
     2ec:	6e02                	ld	t3,0(sp)
     2ee:	4201                	li	tp,0
     2f0:	0000                	unimp
     2f2:	0300                	addi	s0,sp,384
     2f4:	00000303          	lb	t1,0(zero) # 0 <_entry>
     2f8:	02007817          	auipc	a6,0x2007
     2fc:	0a70                	addi	a2,sp,284
     2fe:	0042                	c.slli	zero,0x10
     300:	0000                	unimp
     302:	1400                	addi	s0,sp,544
     304:	01c8                	addi	a0,sp,196
     306:	0000                	unimp
     308:	3f02                	fld	ft10,32(sp)
     30a:	0101                	addi	sp,sp,0
     30c:	00031c03          	lh	s8,0(t1)
     310:	1500                	addi	s0,sp,672
     312:	0078                	addi	a4,sp,12
     314:	3f02                	fld	ft10,32(sp)
     316:	0000420f          	.4byte	0x420f
     31a:	0000                	unimp
     31c:	8214                	.2byte	0x8214
     31e:	0001                	nop
     320:	0200                	addi	s0,sp,256
     322:	0136                	slli	sp,sp,0xd
     324:	0301                	addi	t1,t1,0
     326:	0335                	addi	t1,t1,13
     328:	0000                	unimp
     32a:	7815                	lui	a6,0xfffe5
     32c:	0200                	addi	s0,sp,256
     32e:	1236                	slli	tp,tp,0x2d
     330:	0042                	c.slli	zero,0x10
     332:	0000                	unimp
     334:	1600                	addi	s0,sp,800
     336:	0000015b          	.4byte	0x15b
     33a:	2e02                	fld	ft8,0(sp)
     33c:	4201                	li	tp,0
     33e:	0000                	unimp
     340:	0300                	addi	s0,sp,384
     342:	0351                	addi	t1,t1,20
     344:	0000                	unimp
     346:	02007817          	auipc	a6,0x2007
     34a:	0a30                	addi	a2,sp,280
     34c:	0042                	c.slli	zero,0x10
     34e:	0000                	unimp
     350:	1800                	addi	s0,sp,48
     352:	00000037          	lui	zero,0x0
     356:	1e02                	slli	t3,t3,0x20
     358:	4201                	li	tp,0
     35a:	0000                	unimp
     35c:	0300                	addi	s0,sp,384
     35e:	02007817          	auipc	a6,0x2007
     362:	0a20                	addi	s0,sp,280
     364:	0042                	c.slli	zero,0x10
     366:	0000                	unimp
     368:	0000                	unimp
     36a:	01fa                	slli	gp,gp,0x1e
     36c:	0000                	unimp
     36e:	0002                	c.slli64	zero
     370:	00000173          	.4byte	0x173
     374:	0108                	addi	a0,sp,128
     376:	0085                	addi	ra,ra,1 # f7 <memset+0x1d>
     378:	0000                	unimp
     37a:	120c                	addi	a1,sp,288
     37c:	0002                	c.slli64	zero
     37e:	9800                	.2byte	0x9800
     380:	0001                	nop
     382:	8200                	.2byte	0x8200
     384:	0000                	unimp
     386:	0000                	unimp
     388:	0000                	unimp
     38a:	da00                	sw	s0,48(a2)
     38c:	0000                	unimp
     38e:	0000                	unimp
     390:	0000                	unimp
     392:	9200                	.2byte	0x9200
     394:	0001                	nop
     396:	0200                	addi	s0,sp,256
     398:	01e9                	addi	gp,gp,26 # 301001a <ustack+0x2ffef3a>
     39a:	0000                	unimp
     39c:	0102                	c.slli64	sp
     39e:	3918                	fld	fa4,48(a0)
     3a0:	0000                	unimp
     3a2:	0300                	addi	s0,sp,384
     3a4:	0704                	addi	s1,sp,896
     3a6:	0065                	c.nop	25
     3a8:	0000                	unimp
     3aa:	72070203          	lb	tp,1824(a4) # 1a720 <ustack+0x9640>
     3ae:	0000                	unimp
     3b0:	0200                	addi	s0,sp,256
     3b2:	0202                	c.slli64	tp
     3b4:	0000                	unimp
     3b6:	0302                	c.slli64	t1
     3b8:	5318                	lw	a4,32(a4)
     3ba:	0000                	unimp
     3bc:	0300                	addi	s0,sp,384
     3be:	0801                	addi	a6,a6,0 # 200735e <ustack+0x1ff627e>
     3c0:	004c                	addi	a1,sp,4
     3c2:	0000                	unimp
     3c4:	1a02                	slli	s4,s4,0x20
     3c6:	0000                	unimp
     3c8:	0200                	addi	s0,sp,256
     3ca:	1708                	addi	a0,sp,928
     3cc:	0066                	c.slli	zero,0x19
     3ce:	0000                	unimp
     3d0:	60070803          	lb	a6,1536(a4)
     3d4:	0000                	unimp
     3d6:	0300                	addi	s0,sp,384
     3d8:	0508                	addi	a0,sp,640
     3da:	0000016f          	jal	sp,3da <create_process+0x10>
     3de:	0404                	addi	s1,sp,512
     3e0:	6905                	lui	s2,0x1
     3e2:	746e                	ld	s0,248(sp)
     3e4:	0300                	addi	s0,sp,384
     3e6:	0508                	addi	a0,sp,640
     3e8:	016a                	slli	sp,sp,0x1a
     3ea:	0000                	unimp
     3ec:	8c041003          	lh	zero,-1856(s0) # 198c0 <ustack+0x87e0>
     3f0:	0001                	nop
     3f2:	0500                	addi	s0,sp,640
     3f4:	7562                	ld	a0,56(sp)
     3f6:	0066                	c.slli	zero,0x19
     3f8:	0428                	addi	a0,sp,520
     3fa:	10080303          	lb	t1,256(a6)
     3fe:	0001                	nop
     400:	0600                	addi	s0,sp,768
     402:	0000022b          	.4byte	0x22b
     406:	74070403          	lb	s0,1856(a4)
     40a:	0000                	unimp
     40c:	0200                	addi	s0,sp,256
     40e:	1f060023          	sb	a6,480(a2)
     412:	0002                	c.slli64	zero
     414:	0300                	addi	s0,sp,384
     416:	0705                	addi	a4,a4,1
     418:	0074                	addi	a3,sp,12
     41a:	0000                	unimp
     41c:	2302                	fld	ft6,0(sp)
     41e:	0704                	addi	s1,sp,896
     420:	6564                	ld	s1,200(a0)
     422:	0076                	c.slli	zero,0x1d
     424:	2d080603          	lb	a2,720(a6)
     428:	0000                	unimp
     42a:	0200                	addi	s0,sp,256
     42c:	e1060823          	sb	a6,-496(a2)
     430:	0001                	nop
     432:	0300                	addi	s0,sp,384
     434:	002d0807          	.4byte	0x2d0807
     438:	0000                	unimp
     43a:	2302                	fld	ft6,0(sp)
     43c:	060c                	addi	a1,sp,768
     43e:	0224                	addi	s1,sp,264
     440:	0000                	unimp
     442:	2d080803          	lb	a6,720(a6)
     446:	0000                	unimp
     448:	0200                	addi	s0,sp,256
     44a:	36061023          	sh	zero,864(a2)
     44e:	0002                	c.slli64	zero
     450:	0300                	addi	s0,sp,384
     452:	0f09                	addi	t5,t5,2
     454:	0110                	addi	a2,sp,128
     456:	0000                	unimp
     458:	2302                	fld	ft6,0(sp)
     45a:	0618                	addi	a4,sp,768
     45c:	0231                	addi	tp,tp,12 # c <_entry+0xc>
     45e:	0000                	unimp
     460:	100f0a03          	lb	s4,256(t5)
     464:	0001                	nop
     466:	0200                	addi	s0,sp,256
     468:	fd062023          	sw	a6,-64(a2)
     46c:	0001                	nop
     46e:	0300                	addi	s0,sp,384
     470:	0116090b          	.4byte	0x116090b
     474:	0000                	unimp
     476:	2302                	fld	ft6,0(sp)
     478:	0028                	addi	a0,sp,8
     47a:	0808                	addi	a0,sp,16
     47c:	0089                	addi	ra,ra,2
     47e:	0000                	unimp
     480:	4709                	li	a4,2
     482:	0000                	unimp
     484:	2700                	fld	fs0,8(a4)
     486:	0001                	nop
     488:	0a00                	addi	s0,sp,272
     48a:	0066                	c.slli	zero,0x19
     48c:	0000                	unimp
     48e:	03ff                	.2byte	0x3ff
     490:	0b00                	addi	s0,sp,400
     492:	d901                	beqz	a0,3a2 <usertrap>
     494:	0001                	nop
     496:	0400                	addi	s0,sp,512
     498:	1115                	addi	sp,sp,-27
     49a:	4a01                	li	s4,0
     49c:	0001                	nop
     49e:	0100                	addi	s0,sp,128
     4a0:	014a                	slli	sp,sp,0x12
     4a2:	0000                	unimp
     4a4:	4a0c                	lw	a1,16(a2)
     4a6:	0001                	nop
     4a8:	0c00                	addi	s0,sp,528
     4aa:	014c                	addi	a1,sp,132
     4ac:	0000                	unimp
     4ae:	2d0c                	fld	fa1,24(a0)
     4b0:	0000                	unimp
     4b2:	0000                	unimp
     4b4:	080d                	addi	a6,a6,3
     4b6:	0808                	addi	a0,sp,16
     4b8:	0152                	slli	sp,sp,0x14
     4ba:	0000                	unimp
     4bc:	0f0e                	slli	t5,t5,0x3
     4be:	ee01                	bnez	a2,4d6 <process_entry+0xba>
     4c0:	0001                	nop
     4c2:	0400                	addi	s0,sp,512
     4c4:	111f 0101 0168      	.byte	0x1f, 0x11, 0x01, 0x01, 0x68, 0x01
     4ca:	0000                	unimp
     4cc:	680c                	ld	a1,16(s0)
     4ce:	0001                	nop
     4d0:	0000                	unimp
     4d2:	0808                	addi	a0,sp,16
     4d4:	016e                	slli	sp,sp,0x1b
     4d6:	0000                	unimp
     4d8:	55080103          	lb	sp,1360(a6)
     4dc:	0000                	unimp
     4de:	1000                	addi	s0,sp,32
     4e0:	0801                	addi	a6,a6,0
     4e2:	0002                	c.slli64	zero
     4e4:	0100                	addi	s0,sp,128
     4e6:	8201010f          	.4byte	0x8201010f
     4ea:	0000                	unimp
     4ec:	0000                	unimp
     4ee:	0000                	unimp
     4f0:	da00                	sw	s0,48(a2)
     4f2:	0000                	unimp
     4f4:	0000                	unimp
     4f6:	0000                	unimp
     4f8:	e600                	sd	s0,8(a2)
     4fa:	0001                	nop
     4fc:	0100                	addi	s0,sp,128
     4fe:	6211                	lui	tp,0x4
     500:	0100                	addi	s0,sp,128
     502:	0110170f          	.4byte	0x110170f
     506:	0000                	unimp
     508:	026e                	slli	tp,tp,0x1b
     50a:	0000                	unimp
     50c:	f412                	sd	tp,40(sp)
     50e:	0001                	nop
     510:	0100                	addi	s0,sp,128
     512:	0a15                	addi	s4,s4,5
     514:	005a                	c.slli	zero,0x16
     516:	0000                	unimp
     518:	02cd                	addi	t0,t0,19
     51a:	0000                	unimp
     51c:	f812                	sd	tp,48(sp)
     51e:	0001                	nop
     520:	0100                	addi	s0,sp,128
     522:	0916                	slli	s2,s2,0x5
     524:	0168                	addi	a0,sp,140
     526:	0000                	unimp
     528:	02fc                	addi	a5,sp,332
     52a:	0000                	unimp
     52c:	0000ba13          	sltiu	s4,ra,0
     530:	0000                	unimp
     532:	0000                	unimp
     534:	2700                	fld	fs0,8(a4)
     536:	0001                	nop
     538:	e100                	sd	s0,0(a0)
     53a:	0001                	nop
     53c:	1400                	addi	s0,sp,544
     53e:	5a01                	li	s4,-32
     540:	7902                	ld	s2,32(sp)
     542:	1428                	addi	a0,sp,552
     544:	5c01                	li	s8,-32
     546:	04000a03          	lb	s4,64(zero) # 40 <start+0x24>
     54a:	1500                	addi	s0,sp,672
     54c:	00d8                	addi	a4,sp,68
     54e:	0000                	unimp
     550:	0000                	unimp
     552:	0000                	unimp
     554:	00000153          	fadd.s	ft2,ft0,ft0,rne
     558:	0114                	addi	a3,sp,128
     55a:	095a                	slli	s2,s2,0x16
     55c:	00043003          	ld	zero,0(s0)
	...
     568:	039f 0000 0002      	.byte	0x9f, 0x03, 0x00, 0x00, 0x02, 0x00
     56e:	0299                	addi	t0,t0,6
     570:	0000                	unimp
     572:	0108                	addi	a0,sp,128
     574:	0085                	addi	ra,ra,1
     576:	0000                	unimp
     578:	630c                	ld	a1,0(a4)
     57a:	0002                	c.slli64	zero
     57c:	9800                	.2byte	0x9800
     57e:	0001                	nop
     580:	da00                	sw	s0,48(a2)
     582:	0000                	unimp
     584:	0000                	unimp
     586:	0000                	unimp
     588:	7e00                	ld	s0,56(a2)
     58a:	0002                	c.slli64	zero
     58c:	0000                	unimp
     58e:	0000                	unimp
     590:	5300                	lw	s0,32(a4)
     592:	0002                	c.slli64	zero
     594:	0200                	addi	s0,sp,256
     596:	01e9                	addi	gp,gp,26
     598:	0000                	unimp
     59a:	0102                	c.slli64	sp
     59c:	3918                	fld	fa4,48(a0)
     59e:	0000                	unimp
     5a0:	0300                	addi	s0,sp,384
     5a2:	0704                	addi	s1,sp,896
     5a4:	0065                	c.nop	25
     5a6:	0000                	unimp
     5a8:	72070203          	lb	tp,1824(a4)
     5ac:	0000                	unimp
     5ae:	0200                	addi	s0,sp,256
     5b0:	0202                	c.slli64	tp
     5b2:	0000                	unimp
     5b4:	0302                	c.slli64	t1
     5b6:	5818                	lw	a4,48(s0)
     5b8:	0000                	unimp
     5ba:	0400                	addi	s0,sp,512
     5bc:	00000047          	fmsub.s	ft0,ft0,ft0,ft0,rne
     5c0:	4c080103          	lb	sp,1216(a6)
     5c4:	0000                	unimp
     5c6:	0300                	addi	s0,sp,384
     5c8:	0708                	addi	a0,sp,896
     5ca:	0060                	addi	s0,sp,12
     5cc:	0000                	unimp
     5ce:	0105                	addi	sp,sp,1
     5d0:	025c                	addi	a5,sp,260
     5d2:	0000                	unimp
     5d4:	6301                	.2byte	0x6301
     5d6:	0101                	addi	sp,sp,0
     5d8:	00aa                	slli	ra,ra,0xa
     5da:	0000                	unimp
     5dc:	0254                	addi	a3,sp,260
     5de:	0000                	unimp
     5e0:	0000                	unimp
     5e2:	0000                	unimp
     5e4:	027e                	slli	tp,tp,0x1f
     5e6:	0000                	unimp
     5e8:	0000                	unimp
     5ea:	0000                	unimp
     5ec:	0330                	addi	a2,sp,392
     5ee:	0000                	unimp
     5f0:	aa01                	j	700 <process_entry+0x2e4>
     5f2:	0000                	unimp
     5f4:	0600                	addi	s0,sp,768
     5f6:	63010073          	.4byte	0x63010073
     5fa:	b114                	fsd	fa3,32(a0)
     5fc:	0000                	unimp
     5fe:	b800                	fsd	fs0,48(s0)
     600:	07000003          	lb	zero,112(zero) # 70 <start+0x54>
     604:	006e                	c.slli	zero,0x1b
     606:	6501                	.2byte	0x6501
     608:	0000aa07          	flw	fs4,0(ra)
     60c:	2f00                	fld	fs0,24(a4)
     60e:	0004                	.2byte	0x4
     610:	0000                	unimp
     612:	0408                	addi	a0,sp,512
     614:	6905                	lui	s2,0x1
     616:	746e                	ld	s0,248(sp)
     618:	0900                	addi	s0,sp,144
     61a:	be08                	fsd	fa0,56(a2)
     61c:	0000                	unimp
     61e:	0300                	addi	s0,sp,384
     620:	0801                	addi	a6,a6,0
     622:	0055                	c.nop	21
     624:	0000                	unimp
     626:	b704                	fsd	fs1,40(a4)
     628:	0000                	unimp
     62a:	0500                	addi	s0,sp,640
     62c:	5101                	li	sp,-32
     62e:	0002                	c.slli64	zero
     630:	0100                	addi	s0,sp,128
     632:	0155                	addi	sp,sp,21
     634:	2201                	sext.w	tp,tp
     636:	0001                	nop
     638:	2200                	fld	fs0,0(a2)
     63a:	0002                	c.slli64	zero
     63c:	0000                	unimp
     63e:	0000                	unimp
     640:	5400                	lw	s0,40(s0)
     642:	0002                	c.slli64	zero
     644:	0000                	unimp
     646:	0000                	unimp
     648:	8100                	.2byte	0x8100
     64a:	0004                	.2byte	0x4
     64c:	0100                	addi	s0,sp,128
     64e:	0122                	slli	sp,sp,0x8
     650:	0000                	unimp
     652:	7306                	ld	t1,96(sp)
     654:	0100                	addi	s0,sp,128
     656:	1255                	addi	tp,tp,-11 # 3ff5 <stack0+0x2fe5>
     658:	0122                	slli	sp,sp,0x8
     65a:	0000                	unimp
     65c:	04f5                	addi	s1,s1,29
     65e:	0000                	unimp
     660:	7406                	ld	s0,96(sp)
     662:	0100                	addi	s0,sp,128
     664:	2155                	addiw	sp,sp,21
     666:	00b1                	addi	ra,ra,12
     668:	0000                	unimp
     66a:	0000052b          	.4byte	0x52b
     66e:	6e06                	ld	t3,64(sp)
     670:	0100                	addi	s0,sp,128
     672:	2855                	addiw	a6,a6,21
     674:	00aa                	slli	ra,ra,0xa
     676:	0000                	unimp
     678:	0561                	addi	a0,a0,24
     67a:	0000                	unimp
     67c:	6f0a                	ld	t5,128(sp)
     67e:	57010073          	.4byte	0x57010073
     682:	2209                	addiw	tp,tp,2 # 2 <_entry+0x2>
     684:	0001                	nop
     686:	0100                	addi	s0,sp,128
     688:	005a                	c.slli	zero,0x16
     68a:	0809                	addi	a6,a6,2
     68c:	000000b7          	lui	ra,0x0
     690:	0105                	addi	sp,sp,1
     692:	0242                	slli	tp,tp,0x10
     694:	0000                	unimp
     696:	4701                	li	a4,0
     698:	0101                	addi	sp,sp,0
     69a:	0122                	slli	sp,sp,0x8
     69c:	0000                	unimp
     69e:	01e6                	slli	gp,gp,0x19
     6a0:	0000                	unimp
     6a2:	0000                	unimp
     6a4:	0000                	unimp
     6a6:	0222                	slli	tp,tp,0x8
     6a8:	0000                	unimp
     6aa:	0000                	unimp
     6ac:	0000                	unimp
     6ae:	05a0                	addi	s0,sp,712
     6b0:	0000                	unimp
     6b2:	8701                	c.srai64	a4
     6b4:	0001                	nop
     6b6:	0600                	addi	s0,sp,768
     6b8:	47010073          	.4byte	0x47010073
     6bc:	0001220f          	.4byte	0x1220f
     6c0:	1400                	addi	s0,sp,544
     6c2:	0006                	c.slli	zero,0x1
     6c4:	0600                	addi	s0,sp,768
     6c6:	0074                	addi	a3,sp,12
     6c8:	4701                	li	a4,0
     6ca:	b11e                	fsd	ft7,160(sp)
     6cc:	0000                	unimp
     6ce:	5d00                	lw	s0,56(a0)
     6d0:	0006                	c.slli	zero,0x1
     6d2:	0600                	addi	s0,sp,768
     6d4:	006e                	c.slli	zero,0x1b
     6d6:	4701                	li	a4,0
     6d8:	aa25                	j	810 <process_entry+0x3f4>
     6da:	0000                	unimp
     6dc:	d600                	sw	s0,40(a2)
     6de:	0006                	c.slli	zero,0x1
     6e0:	0a00                	addi	s0,sp,272
     6e2:	0100736f          	jal	t1,76f2 <stack0+0x66e2>
     6e6:	0949                	addi	s2,s2,18 # 1012 <stack0+0x2>
     6e8:	0122                	slli	sp,sp,0x8
     6ea:	0000                	unimp
     6ec:	5a01                	li	s4,-32
     6ee:	0500                	addi	s0,sp,640
     6f0:	7601                	lui	a2,0xfffe0
     6f2:	0002                	c.slli64	zero
     6f4:	0100                	addi	s0,sp,128
     6f6:	013d                	addi	sp,sp,15
     6f8:	aa01                	j	808 <process_entry+0x3ec>
     6fa:	0000                	unimp
     6fc:	aa00                	fsd	fs0,16(a2)
     6fe:	0001                	nop
     700:	0000                	unimp
     702:	0000                	unimp
     704:	e600                	sd	s0,8(a2)
     706:	0001                	nop
     708:	0000                	unimp
     70a:	0000                	unimp
     70c:	2100                	fld	fs0,0(a0)
     70e:	01000007          	.4byte	0x1000007
     712:	01d9                	addi	gp,gp,22
     714:	0000                	unimp
     716:	7006                	.2byte	0x7006
     718:	0100                	addi	s0,sp,128
     71a:	153d                	addi	a0,a0,-17
     71c:	00b1                	addi	ra,ra,12 # c <_entry+0xc>
     71e:	0000                	unimp
     720:	07a9                	addi	a5,a5,10
     722:	0000                	unimp
     724:	7106                	ld	sp,96(sp)
     726:	0100                	addi	s0,sp,128
     728:	243d                	addiw	s0,s0,15
     72a:	00b1                	addi	ra,ra,12
     72c:	0000                	unimp
     72e:	082e                	slli	a6,a6,0xb
     730:	0000                	unimp
     732:	6e06                	ld	t3,64(sp)
     734:	0100                	addi	s0,sp,128
     736:	2c3d                	addiw	s8,s8,15
     738:	002d                	c.nop	11
     73a:	0000                	unimp
     73c:	0864                	addi	s1,sp,28
     73e:	0000                	unimp
     740:	0500                	addi	s0,sp,640
     742:	4a01                	li	s4,0
     744:	0002                	c.slli64	zero
     746:	0100                	addi	s0,sp,128
     748:	4b010137          	lui	sp,0x4b010
     74c:	0002                	c.slli64	zero
     74e:	9200                	.2byte	0x9200
     750:	0001                	nop
     752:	0000                	unimp
     754:	0000                	unimp
     756:	aa00                	fsd	fs0,16(a2)
     758:	0001                	nop
     75a:	0000                	unimp
     75c:	0000                	unimp
     75e:	c000                	sw	s0,0(s0)
     760:	0008                	.2byte	0x8
     762:	0100                	addi	s0,sp,128
     764:	0000024b          	fnmsub.s	ft4,ft0,ft0,ft0,rne
     768:	6406                	ld	s0,64(sp)
     76a:	01007473          	csrrci	s0,0x10,0
     76e:	024b0e37          	lui	t3,0x24b0
     772:	0000                	unimp
     774:	0934                	addi	a3,sp,152
     776:	0000                	unimp
     778:	7306                	ld	t1,96(sp)
     77a:	6372                	ld	t1,280(sp)
     77c:	0100                	addi	s0,sp,128
     77e:	024d1f37          	lui	t5,0x24d1
     782:	0000                	unimp
     784:	096d                	addi	s2,s2,27
     786:	0000                	unimp
     788:	6e06                	ld	t3,64(sp)
     78a:	0100                	addi	s0,sp,128
     78c:	002d2937          	lui	s2,0x2d2
     790:	0000                	unimp
     792:	09a6                	slli	s3,s3,0x9
     794:	0000                	unimp
     796:	0001a20b          	.4byte	0x1a20b
     79a:	0000                	unimp
     79c:	0000                	unimp
     79e:	5400                	lw	s0,40(s0)
     7a0:	0002                	c.slli64	zero
     7a2:	0c00                	addi	s0,sp,528
     7a4:	5a01                	li	s4,-32
     7a6:	5a01f303          	.4byte	0x5a01f303
     7aa:	010c                	addi	a1,sp,128
     7ac:	01f3035b          	.4byte	0x1f3035b
     7b0:	0d00005b          	.4byte	0xd00005b
     7b4:	0908                	addi	a0,sp,144
     7b6:	5308                	lw	a0,32(a4)
     7b8:	0002                	c.slli64	zero
     7ba:	0e00                	addi	s0,sp,784
     7bc:	0105                	addi	sp,sp,1 # 4b010001 <ustack+0x4affef21>
     7be:	01d9                	addi	gp,gp,22
     7c0:	0000                	unimp
     7c2:	1f01                	addi	t5,t5,-32 # 24d0fe0 <ustack+0x24bff00>
     7c4:	0101                	addi	sp,sp,0
     7c6:	0000024b          	fnmsub.s	ft4,ft0,ft0,ft0,rne
     7ca:	0136                	slli	sp,sp,0xd
     7cc:	0000                	unimp
     7ce:	0000                	unimp
     7d0:	0000                	unimp
     7d2:	0192                	slli	gp,gp,0x4
     7d4:	0000                	unimp
     7d6:	0000                	unimp
     7d8:	0000                	unimp
     7da:	09df 0000 c401      	.byte	0xdf, 0x09, 0x00, 0x00, 0x01, 0xc4
     7e0:	0002                	c.slli64	zero
     7e2:	0f00                	addi	s0,sp,912
     7e4:	7364                	ld	s1,224(a4)
     7e6:	0074                	addi	a3,sp,12
     7e8:	1f01                	addi	t5,t5,-32
     7ea:	00024b0f          	.4byte	0x24b0f
     7ee:	0100                	addi	s0,sp,128
     7f0:	065a                	slli	a2,a2,0x16
     7f2:	00637273          	csrrci	tp,0x6,6
     7f6:	1f01                	addi	t5,t5,-32
     7f8:	4d20                	lw	s0,88(a0)
     7fa:	0002                	c.slli64	zero
     7fc:	6700                	ld	s0,8(a4)
     7fe:	000a                	c.slli	zero,0x2
     800:	0600                	addi	s0,sp,768
     802:	006e                	c.slli	zero,0x1b
     804:	1f01                	addi	t5,t5,-32
     806:	2d2a                	fld	fs10,136(sp)
     808:	0000                	unimp
     80a:	b300                	fsd	fs0,32(a4)
     80c:	000a                	c.slli	zero,0x2
     80e:	0700                	addi	s0,sp,896
     810:	21010073          	.4byte	0x21010073
     814:	0000b10f          	.4byte	0xb10f
     818:	1300                	addi	s0,sp,416
     81a:	0700000b          	.4byte	0x700000b
     81e:	0064                	addi	s1,sp,12
     820:	2201                	sext.w	tp,tp
     822:	2209                	addiw	tp,tp,2 # 2 <_entry+0x2>
     824:	0001                	nop
     826:	5c00                	lw	s0,56(s0)
     828:	0000000b          	.4byte	0xb
     82c:	0105                	addi	sp,sp,1
     82e:	0000023b          	addw	tp,zero,zero
     832:	0f01                	addi	t5,t5,0
     834:	0101                	addi	sp,sp,0
     836:	00aa                	slli	ra,ra,0xa
     838:	0000                	unimp
     83a:	00fc                	addi	a5,sp,76
     83c:	0000                	unimp
     83e:	0000                	unimp
     840:	0000                	unimp
     842:	0136                	slli	sp,sp,0xd
     844:	0000                	unimp
     846:	0000                	unimp
     848:	0000                	unimp
     84a:	0bb8                	addi	a4,sp,472
     84c:	0000                	unimp
     84e:	3401                	addiw	s0,s0,-32
     850:	06000003          	lb	zero,96(zero) # 60 <start+0x44>
     854:	3176                	fld	ft2,376(sp)
     856:	0100                	addi	s0,sp,128
     858:	024d140f          	.4byte	0x24d140f
     85c:	0000                	unimp
     85e:	0c40                	addi	s0,sp,532
     860:	0000                	unimp
     862:	7606                	ld	a2,96(sp)
     864:	0032                	c.slli	zero,0xc
     866:	0f01                	addi	t5,t5,0
     868:	4d24                	lw	s1,88(a0)
     86a:	0002                	c.slli64	zero
     86c:	a200                	fsd	fs0,0(a2)
     86e:	000c                	.2byte	0xc
     870:	0600                	addi	s0,sp,768
     872:	006e                	c.slli	zero,0x1b
     874:	0f01                	addi	t5,t5,0
     876:	2d2d                	addiw	s10,s10,11
     878:	0000                	unimp
     87a:	ee00                	sd	s0,24(a2)
     87c:	000c                	.2byte	0xc
     87e:	0700                	addi	s0,sp,896
     880:	01003173          	csrrc	sp,0x10,zero
     884:	1011                	c.nop	-28
     886:	0334                	addi	a3,sp,392
     888:	0000                	unimp
     88a:	00000d63          	beqz	zero,8a4 <process_entry+0x488>
     88e:	730a                	ld	t1,160(sp)
     890:	0032                	c.slli	zero,0xc
     892:	1101                	addi	sp,sp,-32
     894:	3415                	addiw	s0,s0,-27
     896:	01000003          	lb	zero,16(zero) # 10 <_entry+0x10>
     89a:	0809005b          	.4byte	0x809005b
     89e:	00000053          	fadd.s	ft0,ft0,ft0,rne
     8a2:	0110                	addi	a2,sp,128
     8a4:	0000026f          	jal	tp,8a4 <process_entry+0x488>
     8a8:	0401                	addi	s0,s0,0
     8aa:	0101                	addi	sp,sp,0
     8ac:	0000024b          	fnmsub.s	ft4,ft0,ft0,ft0,rne
     8b0:	00da                	slli	ra,ra,0x16
     8b2:	0000                	unimp
     8b4:	0000                	unimp
     8b6:	0000                	unimp
     8b8:	00fc                	addi	a5,sp,76
     8ba:	0000                	unimp
     8bc:	0000                	unimp
     8be:	0000                	unimp
     8c0:	0dc2                	slli	s11,s11,0x10
     8c2:	0000                	unimp
     8c4:	0f01                	addi	t5,t5,0
     8c6:	7364                	ld	s1,224(a4)
     8c8:	0074                	addi	a3,sp,12
     8ca:	0401                	addi	s0,s0,0
     8cc:	4b0e                	lw	s6,192(sp)
     8ce:	0002                	c.slli64	zero
     8d0:	0100                	addi	s0,sp,128
     8d2:	0f5a                	slli	t5,t5,0x16
     8d4:	04010063          	beqz	sp,914 <process_entry+0x4f8>
     8d8:	0000aa17          	auipc	s4,0xa
     8dc:	0100                	addi	s0,sp,128
     8de:	006e065b          	.4byte	0x6e065b
     8e2:	0401                	addi	s0,s0,0
     8e4:	2d1f 0000 3600      	.byte	0x1f, 0x2d, 0x00, 0x00, 0x00, 0x36
     8ea:	000e                	c.slli	zero,0x3
     8ec:	1100                	addi	s0,sp,160
     8ee:	027e                	slli	tp,tp,0x1f
     8f0:	0000                	unimp
     8f2:	0601                	addi	a2,a2,0 # fffffffffffe0000 <ustack+0xfffffffffffcef20>
     8f4:	2209                	addiw	tp,tp,2 # 2 <_entry+0x2>
     8f6:	0001                	nop
     8f8:	0100                	addi	s0,sp,128
     8fa:	075a                	slli	a4,a4,0x16
     8fc:	0069                	c.nop	26
     8fe:	0701                	addi	a4,a4,0
     900:	0000aa07          	flw	fs4,0(ra)
     904:	6f00                	ld	s0,24(a4)
     906:	000e                	c.slli	zero,0x3
     908:	0000                	unimp
     90a:	e500                	sd	s0,8(a0)
     90c:	0000                	unimp
     90e:	0200                	addi	s0,sp,256
     910:	9400                	.2byte	0x9400
     912:	08000003          	lb	zero,128(zero) # 80 <start+0x64>
     916:	8501                	c.srai64	a0
     918:	0000                	unimp
     91a:	0c00                	addi	s0,sp,528
     91c:	0298                	addi	a4,sp,320
     91e:	0000                	unimp
     920:	0198                	addi	a4,sp,192
     922:	0000                	unimp
     924:	027e                	slli	tp,tp,0x1f
     926:	0000                	unimp
     928:	0000                	unimp
     92a:	0000                	unimp
     92c:	02a2                	slli	t0,t0,0x8
     92e:	0000                	unimp
     930:	0000                	unimp
     932:	0000                	unimp
     934:	0711                	addi	a4,a4,4
     936:	0000                	unimp
     938:	0402                	c.slli64	s0
     93a:	00006507          	.4byte	0x6507
     93e:	0200                	addi	s0,sp,256
     940:	0702                	c.slli64	a4
     942:	0072                	c.slli	zero,0x1c
     944:	0000                	unimp
     946:	0102                	c.slli64	sp
     948:	4c08                	lw	a0,24(s0)
     94a:	0000                	unimp
     94c:	0200                	addi	s0,sp,256
     94e:	0708                	addi	a0,sp,896
     950:	0060                	addi	s0,sp,12
     952:	0000                	unimp
     954:	0802                	c.slli64	a6
     956:	6f05                	lui	t5,0x1
     958:	0001                	nop
     95a:	0300                	addi	s0,sp,384
     95c:	0504                	addi	s1,sp,640
     95e:	6e69                	lui	t3,0x1a
     960:	0074                	addi	a3,sp,12
     962:	0802                	c.slli64	a6
     964:	6a05                	lui	s4,0x1
     966:	0001                	nop
     968:	0200                	addi	s0,sp,256
     96a:	0410                	addi	a2,sp,512
     96c:	018c                	addi	a1,sp,192
     96e:	0000                	unimp
     970:	0104                	addi	s1,sp,128
     972:	00000283          	lb	t0,0(zero) # 0 <_entry>
     976:	1401                	addi	s0,s0,-32
     978:	0105                	addi	sp,sp,1
     97a:	0050                	addi	a2,sp,4
     97c:	0000                	unimp
     97e:	0294                	addi	a3,sp,320
     980:	0000                	unimp
     982:	0000                	unimp
     984:	0000                	unimp
     986:	02a2                	slli	t0,t0,0x8
     988:	0000                	unimp
     98a:	0000                	unimp
     98c:	0000                	unimp
     98e:	0ec5                	addi	t4,t4,17
     990:	0000                	unimp
     992:	0401                	addi	s0,s0,0
     994:	2101                	sext.w	sp,sp
     996:	0000                	unimp
     998:	0100                	addi	s0,sp,128
     99a:	0510                	addi	a2,sp,640
     99c:	5001                	c.li	zero,-32
     99e:	0000                	unimp
     9a0:	8600                	.2byte	0x8600
     9a2:	0002                	c.slli64	zero
     9a4:	0000                	unimp
     9a6:	0000                	unimp
     9a8:	9400                	.2byte	0x9400
     9aa:	0002                	c.slli64	zero
     9ac:	0000                	unimp
     9ae:	0000                	unimp
     9b0:	3900                	fld	fs0,48(a0)
     9b2:	0100000f          	fence	w,unknown
     9b6:	0105                	addi	sp,sp,1
     9b8:	01ee                	slli	gp,gp,0x1b
     9ba:	0000                	unimp
     9bc:	0a01                	addi	s4,s4,0 # 1000 <alloc_pages>
     9be:	0106                	slli	sp,sp,0x1
     9c0:	027e                	slli	tp,tp,0x1f
     9c2:	0000                	unimp
     9c4:	0000                	unimp
     9c6:	0000                	unimp
     9c8:	0286                	slli	t0,t0,0x1
     9ca:	0000                	unimp
     9cc:	0000                	unimp
     9ce:	0000                	unimp
     9d0:	0fad                	addi	t6,t6,11
     9d2:	0000                	unimp
     9d4:	db01                	beqz	a4,8e4 <process_entry+0x4c8>
     9d6:	0000                	unimp
     9d8:	0600                	addi	s0,sp,768
     9da:	0a010073          	.4byte	0xa010073
     9de:	db12                	sw	tp,180(sp)
     9e0:	0000                	unimp
     9e2:	0100                	addi	s0,sp,128
     9e4:	005a                	c.slli	zero,0x16
     9e6:	00e10807          	.4byte	0xe10807
     9ea:	0000                	unimp
     9ec:	0102                	c.slli64	sp
     9ee:	5508                	lw	a0,40(a0)
     9f0:	0000                	unimp
     9f2:	0000                	unimp
     9f4:	024d                	addi	tp,tp,19 # 13 <_entry+0x13>
     9f6:	0000                	unimp
     9f8:	0002                	c.slli64	zero
     9fa:	0410                	addi	a2,sp,512
     9fc:	0000                	unimp
     9fe:	0108                	addi	a0,sp,128
     a00:	0085                	addi	ra,ra,1
     a02:	0000                	unimp
     a04:	ff0c                	sd	a1,56(a4)
     a06:	0002                	c.slli64	zero
     a08:	9800                	.2byte	0x9800
     a0a:	0001                	nop
     a0c:	a200                	fsd	fs0,0(a2)
     a0e:	0002                	c.slli64	zero
     a10:	0000                	unimp
     a12:	0000                	unimp
     a14:	e800                	sd	s0,16(s0)
     a16:	0002                	c.slli64	zero
     a18:	0000                	unimp
     a1a:	0000                	unimp
     a1c:	9c00                	.2byte	0x9c00
     a1e:	02000007          	.4byte	0x2000007
     a22:	01e9                	addi	gp,gp,26
     a24:	0000                	unimp
     a26:	0102                	c.slli64	sp
     a28:	3918                	fld	fa4,48(a0)
     a2a:	0000                	unimp
     a2c:	0300                	addi	s0,sp,384
     a2e:	0704                	addi	s1,sp,896
     a30:	0065                	c.nop	25
     a32:	0000                	unimp
     a34:	ef02                	sd	zero,408(sp)
     a36:	0002                	c.slli64	zero
     a38:	0200                	addi	s0,sp,256
     a3a:	1802                	slli	a6,a6,0x20
     a3c:	004c                	addi	a1,sp,4
     a3e:	0000                	unimp
     a40:	72070203          	lb	tp,1824(a4)
     a44:	0000                	unimp
     a46:	0200                	addi	s0,sp,256
     a48:	0202                	c.slli64	tp
     a4a:	0000                	unimp
     a4c:	0302                	c.slli64	t1
     a4e:	5f18                	lw	a4,56(a4)
     a50:	0000                	unimp
     a52:	0300                	addi	s0,sp,384
     a54:	0801                	addi	a6,a6,0
     a56:	004c                	addi	a1,sp,4
     a58:	0000                	unimp
     a5a:	1a02                	slli	s4,s4,0x20
     a5c:	0000                	unimp
     a5e:	0200                	addi	s0,sp,256
     a60:	1708                	addi	a0,sp,928
     a62:	0072                	c.slli	zero,0x1c
     a64:	0000                	unimp
     a66:	60070803          	lb	a6,1536(a4)
     a6a:	0000                	unimp
     a6c:	0300                	addi	s0,sp,384
     a6e:	0508                	addi	a0,sp,640
     a70:	0000016f          	jal	sp,a70 <process_entry+0x654>
     a74:	0404                	addi	s1,sp,512
     a76:	6905                	lui	s2,0x1
     a78:	746e                	ld	s0,248(sp)
     a7a:	0300                	addi	s0,sp,384
     a7c:	0508                	addi	a0,sp,640
     a7e:	016a                	slli	sp,sp,0x1a
     a80:	0000                	unimp
     a82:	8c041003          	lh	zero,-1856(s0)
     a86:	0001                	nop
     a88:	0500                	addi	s0,sp,640
     a8a:	0308                	addi	a0,sp,384
     a8c:	0000                	unimp
     a8e:	0340                	addi	s0,sp,388
     a90:	0806                	slli	a6,a6,0x1
     a92:	0184                	addi	s1,sp,192
     a94:	0000                	unimp
     a96:	1c06                	slli	s8,s8,0x21
     a98:	03000003          	lb	zero,48(zero) # 30 <start+0x14>
     a9c:	002d0807          	.4byte	0x2d0807
     aa0:	0000                	unimp
     aa2:	2302                	fld	ft6,0(sp)
     aa4:	0700                	addi	s0,sp,896
     aa6:	6c65                	lui	s8,0x19
     aa8:	0066                	c.slli	zero,0x19
     aaa:	84090803          	lb	a6,-1984(s2) # 840 <process_entry+0x424>
     aae:	0001                	nop
     ab0:	0200                	addi	s0,sp,256
     ab2:	0f060423          	sb	a6,232(a2)
     ab6:	03000003          	lb	zero,48(zero) # 30 <start+0x14>
     aba:	0a09                	addi	s4,s4,2
     abc:	0040                	addi	s0,sp,4
     abe:	0000                	unimp
     ac0:	2302                	fld	ft6,0(sp)
     ac2:	0610                	addi	a2,sp,768
     ac4:	0314                	addi	a3,sp,384
     ac6:	0000                	unimp
     ac8:	400a0a03          	lb	s4,1024(s4)
     acc:	0000                	unimp
     ace:	0200                	addi	s0,sp,256
     ad0:	c1061223          	sh	a6,-1020(a2)
     ad4:	0002                	c.slli64	zero
     ad6:	0300                	addi	s0,sp,384
     ad8:	002d080b          	.4byte	0x2d080b
     adc:	0000                	unimp
     ade:	2302                	fld	ft6,0(sp)
     ae0:	0614                	addi	a3,sp,768
     ae2:	0014                	.2byte	0x14
     ae4:	0000                	unimp
     ae6:	660a0c03          	lb	s8,1632(s4)
     aea:	0000                	unimp
     aec:	0200                	addi	s0,sp,256
     aee:	b1061823          	sh	a6,-1264(a2)
     af2:	0002                	c.slli64	zero
     af4:	0300                	addi	s0,sp,384
     af6:	0a0d                	addi	s4,s4,3
     af8:	0066                	c.slli	zero,0x19
     afa:	0000                	unimp
     afc:	2302                	fld	ft6,0(sp)
     afe:	0620                	addi	s0,sp,776
     b00:	0322                	slli	t1,t1,0x8
     b02:	0000                	unimp
     b04:	660a0e03          	lb	t3,1632(s4)
     b08:	0000                	unimp
     b0a:	0200                	addi	s0,sp,256
     b0c:	d3062823          	sw	a6,-720(a2)
     b10:	0002                	c.slli64	zero
     b12:	0300                	addi	s0,sp,384
     b14:	002d080f          	.4byte	0x2d080f
     b18:	0000                	unimp
     b1a:	2302                	fld	ft6,0(sp)
     b1c:	0630                	addi	a2,sp,776
     b1e:	02aa                	slli	t0,t0,0xa
     b20:	0000                	unimp
     b22:	400a1003          	lh	zero,1024(s4)
     b26:	0000                	unimp
     b28:	0200                	addi	s0,sp,256
     b2a:	b7063423          	sd	a6,-1176(a2)
     b2e:	0002                	c.slli64	zero
     b30:	0300                	addi	s0,sp,384
     b32:	0a11                	addi	s4,s4,4
     b34:	0040                	addi	s0,sp,4
     b36:	0000                	unimp
     b38:	2302                	fld	ft6,0(sp)
     b3a:	0636                	slli	a2,a2,0xd
     b3c:	02a4                	addi	s1,sp,328
     b3e:	0000                	unimp
     b40:	400a1203          	lh	tp,1024(s4)
     b44:	0000                	unimp
     b46:	0200                	addi	s0,sp,256
     b48:	c9063823          	sd	a6,-880(a2)
     b4c:	0002                	c.slli64	zero
     b4e:	0300                	addi	s0,sp,384
     b50:	00400a13          	li	s4,4
     b54:	0000                	unimp
     b56:	2302                	fld	ft6,0(sp)
     b58:	063a                	slli	a2,a2,0xe
     b5a:	02e9                	addi	t0,t0,26
     b5c:	0000                	unimp
     b5e:	400a1403          	lh	s0,1024(s4)
     b62:	0000                	unimp
     b64:	0200                	addi	s0,sp,256
     b66:	f6063c23          	sd	zero,-136(a2)
     b6a:	0002                	c.slli64	zero
     b6c:	0300                	addi	s0,sp,384
     b6e:	0a15                	addi	s4,s4,5
     b70:	0040                	addi	s0,sp,4
     b72:	0000                	unimp
     b74:	2302                	fld	ft6,0(sp)
     b76:	003e                	c.slli	zero,0xf
     b78:	5308                	lw	a0,32(a4)
     b7a:	0000                	unimp
     b7c:	9400                	.2byte	0x9400
     b7e:	0001                	nop
     b80:	0900                	addi	s0,sp,144
     b82:	0072                	c.slli	zero,0x1c
     b84:	0000                	unimp
     b86:	010a000b          	.4byte	0x10a000b
     b8a:	01ee                	slli	gp,gp,0x1b
     b8c:	0000                	unimp
     b8e:	1f04                	addi	s1,sp,944
     b90:	0111                	addi	sp,sp,4
     b92:	a901                	j	fa2 <process_entry+0xb86>
     b94:	0001                	nop
     b96:	0b00                	addi	s0,sp,400
     b98:	01a9                	addi	gp,gp,10
     b9a:	0000                	unimp
     b9c:	0c00                	addi	s0,sp,528
     b9e:	af08                	fsd	fa0,24(a4)
     ba0:	0001                	nop
     ba2:	0300                	addi	s0,sp,384
     ba4:	0801                	addi	a6,a6,0
     ba6:	0055                	c.nop	21
     ba8:	0000                	unimp
     baa:	010d                	addi	sp,sp,3
     bac:	01d9                	addi	gp,gp,22
     bae:	0000                	unimp
     bb0:	1504                	addi	s1,sp,672
     bb2:	0111                	addi	sp,sp,4
     bb4:	01d9                	addi	gp,gp,22
     bb6:	0000                	unimp
     bb8:	d901                	beqz	a0,ac8 <process_entry+0x6ac>
     bba:	0001                	nop
     bbc:	0b00                	addi	s0,sp,400
     bbe:	01d9                	addi	gp,gp,22
     bc0:	0000                	unimp
     bc2:	0001db0b          	.4byte	0x1db0b
     bc6:	0b00                	addi	s0,sp,400
     bc8:	002d                	c.nop	11
     bca:	0000                	unimp
     bcc:	0e00                	addi	s0,sp,784
     bce:	0c08                	addi	a0,sp,528
     bd0:	e108                	sd	a0,0(a0)
     bd2:	0001                	nop
     bd4:	0f00                	addi	s0,sp,912
     bd6:	0110                	addi	a2,sp,128
     bd8:	02d9                	addi	t0,t0,22
     bda:	0000                	unimp
     bdc:	0c01                	addi	s8,s8,0 # 19000 <ustack+0x7f20>
     bde:	0108                	addi	a0,sp,128
     be0:	0066                	c.slli	zero,0x19
     be2:	0000                	unimp
     be4:	02a2                	slli	t0,t0,0x8
     be6:	0000                	unimp
     be8:	0000                	unimp
     bea:	0000                	unimp
     bec:	02e8                	addi	a0,sp,332
     bee:	0000                	unimp
     bf0:	0000                	unimp
     bf2:	0000                	unimp
     bf4:	0ff9                	addi	t6,t6,30
     bf6:	0000                	unimp
     bf8:	1101                	addi	sp,sp,-32
     bfa:	6c65                	lui	s8,0x19
     bfc:	0066                	c.slli	zero,0x19
     bfe:	0d01                	addi	s10,s10,0
     c00:	00009513          	slli	a0,ra,0x0
     c04:	0300                	addi	s0,sp,384
     c06:	b091                	j	44a <process_entry+0x2e>
     c08:	127f                	.2byte	0x127f
     c0a:	02c0                	addi	s0,sp,324
     c0c:	0000                	unimp
     c0e:	0000                	unimp
     c10:	0000                	unimp
     c12:	01b6                	slli	gp,gp,0xd
     c14:	0000                	unimp
     c16:	023c                	addi	a5,sp,264
     c18:	0000                	unimp
     c1a:	035a0113          	addi	sp,s4,53
     c1e:	b078                	fsd	fa4,224(s0)
     c20:	137f                	.2byte	0x137f
     c22:	5b01                	li	s6,-32
     c24:	0804                	addi	s1,sp,16
     c26:	4884                	lw	s1,16(s1)
     c28:	1324                	addi	s1,sp,424
     c2a:	5c01                	li	s8,-32
     c2c:	0802                	c.slli64	a6
     c2e:	0040                	addi	s0,sp,4
     c30:	e614                	sd	a3,8(a2)
     c32:	0002                	c.slli64	zero
     c34:	0000                	unimp
     c36:	0000                	unimp
     c38:	9400                	.2byte	0x9400
     c3a:	0001                	nop
     c3c:	1300                	addi	s0,sp,416
     c3e:	5a01                	li	s4,-32
     c40:	3001                	.2byte	0x3001
     c42:	0000                	unimp
     c44:	b600                	fsd	fs0,40(a2)
     c46:	02000007          	.4byte	0x2000007
     c4a:	2700                	fld	fs0,8(a4)
     c4c:	0005                	c.nop	1
     c4e:	0800                	addi	s0,sp,16
     c50:	8501                	c.srai64	a0
     c52:	0000                	unimp
     c54:	0c00                	addi	s0,sp,528
     c56:	0445                	addi	s0,s0,17
     c58:	0000                	unimp
     c5a:	0198                	addi	a4,sp,192
     c5c:	0000                	unimp
     c5e:	02e8                	addi	a0,sp,332
     c60:	0000                	unimp
     c62:	0000                	unimp
     c64:	0000                	unimp
     c66:	041c                	addi	a5,sp,512
     c68:	0000                	unimp
     c6a:	0000                	unimp
     c6c:	0000                	unimp
     c6e:	0831                	addi	a6,a6,12
     c70:	0000                	unimp
     c72:	0402                	c.slli64	s0
     c74:	00006507          	.4byte	0x6507
     c78:	0200                	addi	s0,sp,256
     c7a:	0702                	c.slli64	a4
     c7c:	0072                	c.slli	zero,0x1c
     c7e:	0000                	unimp
     c80:	0102                	c.slli64	sp
     c82:	4c08                	lw	a0,24(s0)
     c84:	0000                	unimp
     c86:	0300                	addi	s0,sp,384
     c88:	001a                	c.slli	zero,0x6
     c8a:	0000                	unimp
     c8c:	4e170803          	lb	a6,1249(a4)
     c90:	0000                	unimp
     c92:	0200                	addi	s0,sp,256
     c94:	0708                	addi	a0,sp,896
     c96:	0060                	addi	s0,sp,12
     c98:	0000                	unimp
     c9a:	5104                	lw	s1,32(a0)
     c9c:	0004                	.2byte	0x4
     c9e:	0200                	addi	s0,sp,256
     ca0:	0164                	addi	s1,sp,140
     ca2:	6211                	lui	tp,0x4
     ca4:	0000                	unimp
     ca6:	0500                	addi	s0,sp,640
     ca8:	4208                	lw	a0,0(a2)
     caa:	0000                	unimp
     cac:	0200                	addi	s0,sp,256
     cae:	0508                	addi	a0,sp,640
     cb0:	0000016f          	jal	sp,cb0 <process_entry+0x894>
     cb4:	0406                	slli	s0,s0,0x1
     cb6:	6905                	lui	s2,0x1
     cb8:	746e                	ld	s0,248(sp)
     cba:	0200                	addi	s0,sp,256
     cbc:	0508                	addi	a0,sp,640
     cbe:	016a                	slli	sp,sp,0x1a
     cc0:	0000                	unimp
     cc2:	1002                	c.slli	zero,0x20
     cc4:	8c04                	.2byte	0x8c04
     cc6:	0001                	nop
     cc8:	0700                	addi	s0,sp,896
     cca:	0380                	addi	s0,sp,448
     ccc:	0000                	unimp
     cce:	0470                	addi	a2,sp,524
     cd0:	0802                	c.slli64	a6
     cd2:	0158                	addi	a4,sp,132
     cd4:	0000                	unimp
     cd6:	7208                	ld	a0,32(a2)
     cd8:	0061                	c.nop	24
     cda:	0304                	addi	s1,sp,384
     cdc:	420a                	lw	tp,128(sp)
     cde:	0000                	unimp
     ce0:	0200                	addi	s0,sp,256
     ce2:	73080023          	sb	a6,1824(a6)
     ce6:	0070                	addi	a2,sp,12
     ce8:	0404                	addi	s1,sp,512
     cea:	420a                	lw	tp,128(sp)
     cec:	0000                	unimp
     cee:	0200                	addi	s0,sp,256
     cf0:	73080823          	sb	a6,1840(a6)
     cf4:	0030                	addi	a2,sp,8
     cf6:	0704                	addi	s1,sp,896
     cf8:	420a                	lw	tp,128(sp)
     cfa:	0000                	unimp
     cfc:	0200                	addi	s0,sp,256
     cfe:	73081023          	sh	a6,1824(a6)
     d02:	0031                	c.nop	12
     d04:	0804                	addi	s1,sp,16
     d06:	420a                	lw	tp,128(sp)
     d08:	0000                	unimp
     d0a:	0200                	addi	s0,sp,256
     d0c:	73081823          	sh	a6,1840(a6)
     d10:	0032                	c.slli	zero,0xc
     d12:	0904                	addi	s1,sp,144
     d14:	420a                	lw	tp,128(sp)
     d16:	0000                	unimp
     d18:	0200                	addi	s0,sp,256
     d1a:	73082023          	sw	a6,1824(a6)
     d1e:	0a040033          	.4byte	0xa040033
     d22:	420a                	lw	tp,128(sp)
     d24:	0000                	unimp
     d26:	0200                	addi	s0,sp,256
     d28:	73082823          	sw	a6,1840(a6)
     d2c:	0034                	addi	a3,sp,8
     d2e:	0b04                	addi	s1,sp,400
     d30:	420a                	lw	tp,128(sp)
     d32:	0000                	unimp
     d34:	0200                	addi	s0,sp,256
     d36:	73083023          	sd	a6,1824(a6)
     d3a:	0035                	c.nop	13
     d3c:	0c04                	addi	s1,sp,528
     d3e:	420a                	lw	tp,128(sp)
     d40:	0000                	unimp
     d42:	0200                	addi	s0,sp,256
     d44:	73083823          	sd	a6,1840(a6)
     d48:	0036                	c.slli	zero,0xd
     d4a:	0d04                	addi	s1,sp,656
     d4c:	420a                	lw	tp,128(sp)
     d4e:	0000                	unimp
     d50:	0200                	addi	s0,sp,256
     d52:	73084023          	.4byte	0x73084023
     d56:	0e040037          	lui	zero,0xe040
     d5a:	420a                	lw	tp,128(sp)
     d5c:	0000                	unimp
     d5e:	0200                	addi	s0,sp,256
     d60:	73084823          	.4byte	0x73084823
     d64:	0038                	addi	a4,sp,8
     d66:	0f04                	addi	s1,sp,912
     d68:	420a                	lw	tp,128(sp)
     d6a:	0000                	unimp
     d6c:	0200                	addi	s0,sp,256
     d6e:	73085023          	.4byte	0x73085023
     d72:	0039                	c.nop	14
     d74:	1004                	addi	s1,sp,32
     d76:	420a                	lw	tp,128(sp)
     d78:	0000                	unimp
     d7a:	0200                	addi	s0,sp,256
     d7c:	73085823          	.4byte	0x73085823
     d80:	3031                	.2byte	0x3031
     d82:	0400                	addi	s0,sp,512
     d84:	0a11                	addi	s4,s4,4
     d86:	0042                	c.slli	zero,0x10
     d88:	0000                	unimp
     d8a:	2302                	fld	ft6,0(sp)
     d8c:	0860                	addi	s0,sp,28
     d8e:	00313173          	csrrc	sp,fcsr,sp
     d92:	1204                	addi	s1,sp,288
     d94:	420a                	lw	tp,128(sp)
     d96:	0000                	unimp
     d98:	0200                	addi	s0,sp,256
     d9a:	07006823          	.4byte	0x7006823
     d9e:	0000039b          	sext.w	t2,zero
     da2:	04c8                	addi	a0,sp,580
     da4:	0855                	addi	a6,a6,21
     da6:	021a                	slli	tp,tp,0x6
     da8:	0000                	unimp
     daa:	3f09                	addiw	t5,t5,-30 # fe2 <process_entry+0xbc6>
     dac:	0004                	.2byte	0x4
     dae:	0400                	addi	s0,sp,512
     db0:	1256                	slli	tp,tp,0x35
     db2:	0442                	slli	s0,s0,0x10
     db4:	0000                	unimp
     db6:	2302                	fld	ft6,0(sp)
     db8:	0900                	addi	s0,sp,144
     dba:	03b6                	slli	t2,t2,0xd
     dbc:	0000                	unimp
     dbe:	5704                	lw	s1,40(a4)
     dc0:	7909                	lui	s2,0xfffe2
     dc2:	0004                	.2byte	0x4
     dc4:	0200                	addi	s0,sp,256
     dc6:	66090823          	sb	zero,1648(s2) # fffffffffffe2670 <ustack+0xfffffffffffd1590>
     dca:	04000003          	lb	zero,64(zero) # 40 <start+0x24>
     dce:	0758                	addi	a4,sp,900
     dd0:	0000006f          	j	dd0 <process_entry+0x9b4>
     dd4:	2302                	fld	ft6,0(sp)
     dd6:	0910                	addi	a2,sp,144
     dd8:	0434                	addi	a3,sp,520
     dda:	0000                	unimp
     ddc:	5904                	lw	s1,48(a0)
     dde:	00006f07          	.4byte	0x6f07
     de2:	0200                	addi	s0,sp,256
     de4:	70081423          	sh	zero,1800(a6)
     de8:	6469                	lui	s0,0x1a
     dea:	0400                	addi	s0,sp,512
     dec:	075a                	slli	a4,a4,0x16
     dee:	0000006f          	j	dee <process_entry+0x9d2>
     df2:	2302                	fld	ft6,0(sp)
     df4:	0918                	addi	a4,sp,144
     df6:	035f 0000 5d04      	.byte	0x5f, 0x03, 0x00, 0x00, 0x04, 0x5d
     dfc:	1a10                	addi	a2,sp,304
     dfe:	0002                	c.slli64	zero
     e00:	0200                	addi	s0,sp,256
     e02:	af092023          	sw	a6,-1312(s2)
     e06:	04000003          	lb	zero,64(zero) # 40 <start+0x24>
     e0a:	0a60                	addi	s0,sp,284
     e0c:	0042                	c.slli	zero,0x10
     e0e:	0000                	unimp
     e10:	2302                	fld	ft6,0(sp)
     e12:	0828                	addi	a0,sp,24
     e14:	04007a73          	csrrci	s4,uscratch,0
     e18:	0a61                	addi	s4,s4,24
     e1a:	0042                	c.slli	zero,0x10
     e1c:	0000                	unimp
     e1e:	2302                	fld	ft6,0(sp)
     e20:	0930                	addi	a2,sp,152
     e22:	042a                	slli	s0,s0,0xa
     e24:	0000                	unimp
     e26:	6204                	ld	s1,0(a2)
     e28:	0000550f          	.4byte	0x550f
     e2c:	0200                	addi	s0,sp,256
     e2e:	cf093823          	sd	a6,-784(s2)
     e32:	04000003          	lb	zero,64(zero) # 40 <start+0x24>
     e36:	047b1563          	bne	s6,t2,e80 <process_entry+0xa64>
     e3a:	0000                	unimp
     e3c:	2302                	fld	ft6,0(sp)
     e3e:	0940                	addi	s0,sp,148
     e40:	0380                	addi	s0,sp,448
     e42:	0000                	unimp
     e44:	6404                	ld	s1,8(s0)
     e46:	8412                	mv	s0,tp
     e48:	0000                	unimp
     e4a:	0200                	addi	s0,sp,256
     e4c:	88094823          	.4byte	0x88094823
     e50:	04000003          	lb	zero,64(zero) # 40 <start+0x24>
     e54:	0865                	addi	a6,a6,25
     e56:	0481                	addi	s1,s1,0
     e58:	0000                	unimp
     e5a:	01b82303          	lw	t1,27(a6)
     e5e:	0500                	addi	s0,sp,640
     e60:	5808                	lw	a0,48(s0)
     e62:	0001                	nop
     e64:	0a00                	addi	s0,sp,272
     e66:	000003cf          	fnmadd.s	ft7,ft0,ft0,ft0,rne
     e6a:	0120                	addi	s0,sp,136
     e6c:	2b04                	fld	fs1,16(a4)
     e6e:	4208                	lw	a0,0(a2)
     e70:	0004                	.2byte	0x4
     e72:	0900                	addi	s0,sp,144
     e74:	000003c3          	fmadd.s	ft7,ft0,ft0,ft0,rne
     e78:	2c04                	fld	fs1,24(s0)
     e7a:	4214                	lw	a3,0(a2)
     e7c:	0000                	unimp
     e7e:	0200                	addi	s0,sp,256
     e80:	76090023          	sb	zero,1888(s2)
     e84:	04000003          	lb	zero,64(zero) # 40 <start+0x24>
     e88:	142d                	addi	s0,s0,-21 # 19feb <ustack+0x8f0b>
     e8a:	0042                	c.slli	zero,0x10
     e8c:	0000                	unimp
     e8e:	2302                	fld	ft6,0(sp)
     e90:	0908                	addi	a0,sp,144
     e92:	041e                	slli	s0,s0,0x7
     e94:	0000                	unimp
     e96:	2e04                	fld	fs1,24(a2)
     e98:	4214                	lw	a3,0(a2)
     e9a:	0000                	unimp
     e9c:	0200                	addi	s0,sp,256
     e9e:	65081023          	sh	a6,1600(a6)
     ea2:	6370                	ld	a2,192(a4)
     ea4:	0400                	addi	s0,sp,512
     ea6:	0042142f          	.4byte	0x42142f
     eaa:	0000                	unimp
     eac:	2302                	fld	ft6,0(sp)
     eae:	0918                	addi	a4,sp,144
     eb0:	038d                	addi	t2,t2,3
     eb2:	0000                	unimp
     eb4:	3004                	fld	fs1,32(s0)
     eb6:	4214                	lw	a3,0(a2)
     eb8:	0000                	unimp
     eba:	0200                	addi	s0,sp,256
     ebc:	72082023          	sw	zero,1824(a6)
     ec0:	0061                	c.nop	24
     ec2:	3104                	fld	fs1,32(a0)
     ec4:	4214                	lw	a3,0(a2)
     ec6:	0000                	unimp
     ec8:	0200                	addi	s0,sp,256
     eca:	73082823          	sw	a6,1840(a6)
     ece:	0070                	addi	a2,sp,12
     ed0:	3204                	fld	fs1,32(a2)
     ed2:	4214                	lw	a3,0(a2)
     ed4:	0000                	unimp
     ed6:	0200                	addi	s0,sp,256
     ed8:	67083023          	sd	a6,1632(a6)
     edc:	0070                	addi	a2,sp,12
     ede:	3304                	fld	fs1,32(a4)
     ee0:	4214                	lw	a3,0(a2)
     ee2:	0000                	unimp
     ee4:	0200                	addi	s0,sp,256
     ee6:	74083823          	sd	zero,1872(a6)
     eea:	0070                	addi	a2,sp,12
     eec:	3404                	fld	fs1,40(s0)
     eee:	4214                	lw	a3,0(a2)
     ef0:	0000                	unimp
     ef2:	0200                	addi	s0,sp,256
     ef4:	74084023          	.4byte	0x74084023
     ef8:	0030                	addi	a2,sp,8
     efa:	3504                	fld	fs1,40(a0)
     efc:	4214                	lw	a3,0(a2)
     efe:	0000                	unimp
     f00:	0200                	addi	s0,sp,256
     f02:	74084823          	.4byte	0x74084823
     f06:	0031                	c.nop	12
     f08:	3604                	fld	fs1,40(a2)
     f0a:	4214                	lw	a3,0(a2)
     f0c:	0000                	unimp
     f0e:	0200                	addi	s0,sp,256
     f10:	74085023          	.4byte	0x74085023
     f14:	0032                	c.slli	zero,0xc
     f16:	3704                	fld	fs1,40(a4)
     f18:	4214                	lw	a3,0(a2)
     f1a:	0000                	unimp
     f1c:	0200                	addi	s0,sp,256
     f1e:	73085823          	.4byte	0x73085823
     f22:	0030                	addi	a2,sp,8
     f24:	3804                	fld	fs1,48(s0)
     f26:	4214                	lw	a3,0(a2)
     f28:	0000                	unimp
     f2a:	0200                	addi	s0,sp,256
     f2c:	73086023          	.4byte	0x73086023
     f30:	0031                	c.nop	12
     f32:	3904                	fld	fs1,48(a0)
     f34:	4214                	lw	a3,0(a2)
     f36:	0000                	unimp
     f38:	0200                	addi	s0,sp,256
     f3a:	61086823          	.4byte	0x61086823
     f3e:	0030                	addi	a2,sp,8
     f40:	3a04                	fld	fs1,48(a2)
     f42:	4214                	lw	a3,0(a2)
     f44:	0000                	unimp
     f46:	0200                	addi	s0,sp,256
     f48:	61087023          	.4byte	0x61087023
     f4c:	0031                	c.nop	12
     f4e:	3b04                	fld	fs1,48(a4)
     f50:	4214                	lw	a3,0(a2)
     f52:	0000                	unimp
     f54:	0200                	addi	s0,sp,256
     f56:	61087823          	.4byte	0x61087823
     f5a:	0032                	c.slli	zero,0xc
     f5c:	3c04                	fld	fs1,56(s0)
     f5e:	4214                	lw	a3,0(a2)
     f60:	0000                	unimp
     f62:	0300                	addi	s0,sp,384
     f64:	08018023          	sb	zero,128(gp)
     f68:	3361                	addiw	t1,t1,-8
     f6a:	0400                	addi	s0,sp,512
     f6c:	143d                	addi	s0,s0,-17
     f6e:	0042                	c.slli	zero,0x10
     f70:	0000                	unimp
     f72:	01882303          	lw	t1,24(a6)
     f76:	6108                	ld	a0,0(a0)
     f78:	0034                	addi	a3,sp,8
     f7a:	3e04                	fld	fs1,56(a2)
     f7c:	4214                	lw	a3,0(a2)
     f7e:	0000                	unimp
     f80:	0300                	addi	s0,sp,384
     f82:	08019023          	sh	zero,128(gp)
     f86:	3561                	addiw	a0,a0,-8
     f88:	0400                	addi	s0,sp,512
     f8a:	0042143f 23030000 	.8byte	0x230300000042143f
     f92:	0198                	addi	a4,sp,192
     f94:	6108                	ld	a0,0(a0)
     f96:	0036                	c.slli	zero,0xd
     f98:	4004                	lw	s1,0(s0)
     f9a:	4214                	lw	a3,0(a2)
     f9c:	0000                	unimp
     f9e:	0300                	addi	s0,sp,384
     fa0:	0801a023          	sw	zero,128(gp)
     fa4:	3761                	addiw	a4,a4,-8
     fa6:	0400                	addi	s0,sp,512
     fa8:	1441                	addi	s0,s0,-16
     faa:	0042                	c.slli	zero,0x10
     fac:	0000                	unimp
     fae:	01a82303          	lw	t1,26(a6)
     fb2:	7308                	ld	a0,32(a4)
     fb4:	0032                	c.slli	zero,0xc
     fb6:	4204                	lw	s1,0(a2)
     fb8:	4214                	lw	a3,0(a2)
     fba:	0000                	unimp
     fbc:	0300                	addi	s0,sp,384
     fbe:	0801b023          	sd	zero,128(gp)
     fc2:	04003373          	csrrc	t1,uscratch,zero
     fc6:	00421443          	fmadd.s	fs0,ft4,ft4,ft0,rtz
     fca:	0000                	unimp
     fcc:	01b82303          	lw	t1,27(a6)
     fd0:	7308                	ld	a0,32(a4)
     fd2:	0034                	addi	a3,sp,8
     fd4:	4404                	lw	s1,8(s0)
     fd6:	4214                	lw	a3,0(a2)
     fd8:	0000                	unimp
     fda:	0300                	addi	s0,sp,384
     fdc:	0801c023          	.4byte	0x801c023
     fe0:	04003573          	csrrc	a0,uscratch,zero
     fe4:	1445                	addi	s0,s0,-15
     fe6:	0042                	c.slli	zero,0x10
     fe8:	0000                	unimp
     fea:	01c82303          	lw	t1,28(a6)
     fee:	7308                	ld	a0,32(a4)
     ff0:	0036                	c.slli	zero,0xd
     ff2:	4604                	lw	s1,8(a2)
     ff4:	4214                	lw	a3,0(a2)
     ff6:	0000                	unimp
     ff8:	0300                	addi	s0,sp,384
     ffa:	0801d023          	.4byte	0x801d023
     ffe:	04003773          	csrrc	a4,uscratch,zero
    1002:	00421447          	fmsub.s	fs0,ft4,ft4,ft0,rtz
    1006:	0000                	unimp
    1008:	01d82303          	lw	t1,29(a6)
    100c:	7308                	ld	a0,32(a4)
    100e:	0038                	addi	a4,sp,8
    1010:	4804                	lw	s1,16(s0)
    1012:	4214                	lw	a3,0(a2)
    1014:	0000                	unimp
    1016:	0300                	addi	s0,sp,384
    1018:	0801e023          	.4byte	0x801e023
    101c:	04003973          	csrrc	s2,uscratch,zero
    1020:	1449                	addi	s0,s0,-14
    1022:	0042                	c.slli	zero,0x10
    1024:	0000                	unimp
    1026:	01e82303          	lw	t1,30(a6)
    102a:	7308                	ld	a0,32(a4)
    102c:	3031                	.2byte	0x3031
    102e:	0400                	addi	s0,sp,512
    1030:	144a                	slli	s0,s0,0x32
    1032:	0042                	c.slli	zero,0x10
    1034:	0000                	unimp
    1036:	01f02303          	lw	t1,31(zero) # 1f <start+0x3>
    103a:	7308                	ld	a0,32(a4)
    103c:	3131                	addiw	sp,sp,-20
    103e:	0400                	addi	s0,sp,512
    1040:	0042144b          	fnmsub.s	fs0,ft4,ft4,ft0,rtz
    1044:	0000                	unimp
    1046:	01f82303          	lw	t1,31(a6)
    104a:	7408                	ld	a0,40(s0)
    104c:	4c040033          	.4byte	0x4c040033
    1050:	4214                	lw	a3,0(a2)
    1052:	0000                	unimp
    1054:	0300                	addi	s0,sp,384
    1056:	08028023          	sb	zero,128(t0)
    105a:	3474                	fld	fa3,232(s0)
    105c:	0400                	addi	s0,sp,512
    105e:	144d                	addi	s0,s0,-13
    1060:	0042                	c.slli	zero,0x10
    1062:	0000                	unimp
    1064:	02882303          	lw	t1,40(a6)
    1068:	7408                	ld	a0,40(s0)
    106a:	0035                	c.nop	13
    106c:	4e04                	lw	s1,24(a2)
    106e:	4214                	lw	a3,0(a2)
    1070:	0000                	unimp
    1072:	0300                	addi	s0,sp,384
    1074:	08029023          	sh	zero,128(t0)
    1078:	3674                	fld	fa3,232(a2)
    107a:	0400                	addi	s0,sp,512
    107c:	0042144f          	fnmadd.s	fs0,ft4,ft4,ft0,rtz
    1080:	0000                	unimp
    1082:	02982303          	lw	t1,41(a6)
    1086:	0b00                	addi	s0,sp,400
    1088:	0000043b          	addw	s0,zero,zero
    108c:	002d0407          	.4byte	0x2d0407
    1090:	0000                	unimp
    1092:	5204                	lw	s1,32(a2)
    1094:	7906                	ld	s2,96(sp)
    1096:	0004                	.2byte	0x4
    1098:	0c00                	addi	s0,sp,528
    109a:	03e5                	addi	t2,t2,25
    109c:	0000                	unimp
    109e:	0c00                	addi	s0,sp,528
    10a0:	000003e7          	jalr	t2,zero # 0 <_entry>
    10a4:	0c01                	addi	s8,s8,0 # 19000 <ustack+0x7f20>
    10a6:	00000337          	lui	t1,0x0
    10aa:	0c02                	c.slli64	s8
    10ac:	0340                	addi	s0,sp,388
    10ae:	0000                	unimp
    10b0:	03bb0c03          	lb	s8,59(s6)
    10b4:	0000                	unimp
    10b6:	0c04                	addi	s1,sp,528
    10b8:	0349                	addi	t1,t1,18 # 12 <_entry+0x12>
    10ba:	0000                	unimp
    10bc:	0005                	c.nop	1
    10be:	080d                	addi	a6,a6,3
    10c0:	0805                	addi	a6,a6,1
    10c2:	0220                	addi	s0,sp,264
    10c4:	0000                	unimp
    10c6:	910e                	add	sp,sp,gp
    10c8:	0004                	.2byte	0x4
    10ca:	9100                	.2byte	0x9100
    10cc:	0004                	.2byte	0x4
    10ce:	0f00                	addi	s0,sp,912
    10d0:	004e                	c.slli	zero,0x13
    10d2:	0000                	unimp
    10d4:	0102000f          	.4byte	0x102000f
    10d8:	5508                	lw	a0,40(a0)
    10da:	0000                	unimp
    10dc:	0e00                	addi	s0,sp,784
    10de:	0491                	addi	s1,s1,4
    10e0:	0000                	unimp
    10e2:	04a9                	addi	s1,s1,10
    10e4:	0000                	unimp
    10e6:	4e10                	lw	a2,24(a2)
    10e8:	0000                	unimp
    10ea:	ff00                	sd	s0,56(a4)
    10ec:	007f                	.2byte	0x7f
    10ee:	3011                	.2byte	0x3011
    10f0:	01000003          	lb	zero,16(zero) # 10 <_entry+0x10>
    10f4:	250c                	fld	fa1,8(a0)
    10f6:	0498                	addi	a4,sp,576
    10f8:	0000                	unimp
    10fa:	1001                	c.nop	-32
    10fc:	0309                	addi	t1,t1,2
    10fe:	10e0                	addi	s0,sp,108
    1100:	0001                	nop
    1102:	0000                	unimp
    1104:	0000                	unimp
    1106:	af11                	j	181a <stack0+0x80a>
    1108:	01000003          	lb	zero,16(zero) # 10 <_entry+0x10>
    110c:	250d                	addiw	a0,a0,3
    110e:	0498                	addi	a4,sp,576
    1110:	0000                	unimp
    1112:	1001                	c.nop	-32
    1114:	0309                	addi	t1,t1,2
    1116:	90e0                	.2byte	0x90e0
    1118:	0000                	unimp
    111a:	0000                	unimp
    111c:	0000                	unimp
    111e:	7012                	.2byte	0x7012
    1120:	0100                	addi	s0,sp,128
    1122:	0d10                	addi	a2,sp,656
    1124:	0158                	addi	a4,sp,132
    1126:	0000                	unimp
    1128:	0901                	addi	s2,s2,0
    112a:	00901003          	lh	zero,9(zero) # 9 <_entry+0x9>
    112e:	0000                	unimp
    1130:	0000                	unimp
    1132:	1300                	addi	s0,sp,416
    1134:	03d9                	addi	t2,t2,22
    1136:	0000                	unimp
    1138:	1501                	addi	a0,a0,-32
    113a:	6f05                	lui	t5,0x1
    113c:	0000                	unimp
    113e:	0100                	addi	s0,sp,128
    1140:	0309                	addi	t1,t1,2
    1142:	1000                	addi	s0,sp,32
    1144:	0000                	unimp
    1146:	0000                	unimp
    1148:	0000                	unimp
    114a:	0114                	addi	a3,sp,128
    114c:	0404                	addi	s1,sp,512
    114e:	0000                	unimp
    1150:	2805                	addiw	a6,a6,1
    1152:	0111                	addi	sp,sp,4
    1154:	1501                	addi	a0,a0,-32
    1156:	ee01                	bnez	a2,116e <stack0+0x15e>
    1158:	0001                	nop
    115a:	0500                	addi	s0,sp,640
    115c:	111f 0101 0525      	.byte	0x1f, 0x11, 0x01, 0x01, 0x25, 0x05
    1162:	0000                	unimp
    1164:	2516                	fld	fa0,320(sp)
    1166:	0005                	c.nop	1
    1168:	0000                	unimp
    116a:	0805                	addi	a6,a6,1
    116c:	0491                	addi	s1,s1,4
    116e:	0000                	unimp
    1170:	000d0117          	auipc	sp,0xd0
    1174:	0000                	unimp
    1176:	4f01                	li	t5,0
    1178:	0106                	slli	sp,sp,0x1
    117a:	040a                	slli	s0,s0,0x2
    117c:	0000                	unimp
    117e:	0000                	unimp
    1180:	0000                	unimp
    1182:	041c                	addi	a5,sp,512
    1184:	0000                	unimp
    1186:	0000                	unimp
    1188:	0000                	unimp
    118a:	00001083          	lh	ra,0(zero) # 0 <_entry>
    118e:	5c01                	li	s8,-32
    1190:	0005                	c.nop	1
    1192:	1800                	addi	s0,sp,48
    1194:	041a                	slli	s0,s0,0x6
    1196:	0000                	unimp
    1198:	0000                	unimp
    119a:	0000                	unimp
    119c:	055c                	addi	a5,sp,644
    119e:	0000                	unimp
    11a0:	1700                	addi	s0,sp,928
    11a2:	a001                	j	11a2 <stack0+0x192>
    11a4:	01000003          	lb	zero,16(zero) # 10 <_entry+0x10>
    11a8:	0641                	addi	a2,a2,16
    11aa:	ca01                	beqz	a2,11ba <stack0+0x1aa>
    11ac:	00000003          	lb	zero,0(zero) # 0 <_entry>
    11b0:	0000                	unimp
    11b2:	0a00                	addi	s0,sp,272
    11b4:	0004                	.2byte	0x4
    11b6:	0000                	unimp
    11b8:	0000                	unimp
    11ba:	cf00                	sw	s0,24(a4)
    11bc:	0010                	.2byte	0x10
    11be:	0100                	addi	s0,sp,128
    11c0:	059a                	slli	a1,a1,0x6
    11c2:	0000                	unimp
    11c4:	da18                	sw	a4,48(a2)
    11c6:	00000003          	lb	zero,0(zero) # 0 <_entry>
    11ca:	0000                	unimp
    11cc:	c900                	sw	s0,16(a0)
    11ce:	0006                	c.slli	zero,0x1
    11d0:	1800                	addi	s0,sp,48
    11d2:	0402                	c.slli64	s0
    11d4:	0000                	unimp
    11d6:	0000                	unimp
    11d8:	0000                	unimp
    11da:	059a                	slli	a1,a1,0x6
    11dc:	0000                	unimp
    11de:	1700                	addi	s0,sp,928
    11e0:	1201                	addi	tp,tp,-32 # 3fe0 <stack0+0x2fd0>
    11e2:	0004                	.2byte	0x4
    11e4:	0100                	addi	s0,sp,128
    11e6:	0629                	addi	a2,a2,10
    11e8:	4e01                	li	t3,0
    11ea:	00000003          	lb	zero,0(zero) # 0 <_entry>
    11ee:	0000                	unimp
    11f0:	a200                	fsd	fs0,0(a2)
    11f2:	00000003          	lb	zero,0(zero) # 0 <_entry>
    11f6:	0000                	unimp
    11f8:	4300                	lw	s0,0(a4)
    11fa:	0011                	c.nop	4
    11fc:	0100                	addi	s0,sp,128
    11fe:	0676                	slli	a2,a2,0x1d
    1200:	0000                	unimp
    1202:	7819                	lui	a6,0xfffe6
    1204:	0100                	addi	s0,sp,128
    1206:	1335                	addi	t1,t1,-19
    1208:	004e                	c.slli	zero,0x13
    120a:	0000                	unimp
    120c:	000011b7          	lui	gp,0x1
    1210:	3a1a                	fld	fs4,416(sp)
    1212:	76000007          	.4byte	0x76000007
    1216:	00000003          	lb	zero,0(zero) # 0 <_entry>
    121a:	0000                	unimp
    121c:	7c00                	ld	s0,56(s0)
    121e:	00000003          	lb	zero,0(zero) # 0 <_entry>
    1222:	0000                	unimp
    1224:	0100                	addi	s0,sp,128
    1226:	05f1052f          	.4byte	0x5f1052f
    122a:	0000                	unimp
    122c:	0007481b          	.4byte	0x7481b
    1230:	0500                	addi	s0,sp,640
    1232:	0012                	c.slli	zero,0x4
    1234:	0000                	unimp
    1236:	1c1a                	slli	s8,s8,0x26
    1238:	7c000007          	.4byte	0x7c000007
    123c:	00000003          	lb	zero,0(zero) # 0 <_entry>
    1240:	0000                	unimp
    1242:	7e00                	ld	s0,56(a2)
    1244:	00000003          	lb	zero,0(zero) # 0 <_entry>
    1248:	0000                	unimp
    124a:	0100                	addi	s0,sp,128
    124c:	2232                	fld	ft4,264(sp)
    124e:	00000613          	li	a2,0
    1252:	2e1c                	fld	fa5,24(a2)
    1254:	00000007          	.4byte	0x7
    1258:	a11a                	fsd	ft6,128(sp)
    125a:	80000007          	.4byte	0x80000007
    125e:	00000003          	lb	zero,0(zero) # 0 <_entry>
    1262:	0000                	unimp
    1264:	8400                	.2byte	0x8400
    1266:	00000003          	lb	zero,0(zero) # 0 <_entry>
    126a:	0000                	unimp
    126c:	0100                	addi	s0,sp,128
    126e:	1735                	addi	a4,a4,-19
    1270:	0635                	addi	a2,a2,13
    1272:	0000                	unimp
    1274:	ae1c                	fsd	fa5,24(a2)
    1276:	00000007          	.4byte	0x7
    127a:	881d                	andi	s0,s0,7
    127c:	88000007          	.4byte	0x88000007
    1280:	00000003          	lb	zero,0(zero) # 0 <_entry>
    1284:	0000                	unimp
    1286:	9000                	.2byte	0x9000
    1288:	0000                	unimp
    128a:	0100                	addi	s0,sp,128
    128c:	0538                	addi	a4,sp,648
    128e:	00000657          	.4byte	0x657
    1292:	0007961b          	slliw	a2,a5,0x0
    1296:	2900                	fld	fs0,16(a0)
    1298:	0012                	c.slli	zero,0x4
    129a:	0000                	unimp
    129c:	6f1e                	ld	t5,448(sp)
    129e:	90000007          	.4byte	0x90000007
    12a2:	00000003          	lb	zero,0(zero) # 0 <_entry>
    12a6:	0000                	unimp
    12a8:	c000                	sw	s0,0(s0)
    12aa:	0000                	unimp
    12ac:	0100                	addi	s0,sp,128
    12ae:	7d1b053b          	.4byte	0x7d1b053b
    12b2:	64000007          	.4byte	0x64000007
    12b6:	0012                	c.slli	zero,0x4
    12b8:	0000                	unimp
    12ba:	1700                	addi	s0,sp,928
    12bc:	6d01                	.2byte	0x6d01
    12be:	01000003          	lb	zero,16(zero) # 10 <_entry+0x10>
    12c2:	a2010623          	sb	zero,-1492(sp) # d0b9c <ustack+0xbfabc>
    12c6:	00000003          	lb	zero,0(zero) # 0 <_entry>
    12ca:	0000                	unimp
    12cc:	ca00                	sw	s0,16(a2)
    12ce:	00000003          	lb	zero,0(zero) # 0 <_entry>
    12d2:	0000                	unimp
    12d4:	9200                	.2byte	0x9200
    12d6:	0012                	c.slli	zero,0x4
    12d8:	0100                	addi	s0,sp,128
    12da:	06c9                	addi	a3,a3,18
    12dc:	0000                	unimp
    12de:	531a                	lw	t1,164(sp)
    12e0:	aa000007          	.4byte	0xaa000007
    12e4:	00000003          	lb	zero,0(zero) # 0 <_entry>
    12e8:	0000                	unimp
    12ea:	ae00                	fsd	fs0,24(a2)
    12ec:	00000003          	lb	zero,0(zero) # 0 <_entry>
    12f0:	0000                	unimp
    12f2:	0100                	addi	s0,sp,128
    12f4:	1625                	addi	a2,a2,-23
    12f6:	000006bb          	addw	a3,zero,zero
    12fa:	641c                	ld	a5,8(s0)
    12fc:	00000007          	.4byte	0x7
    1300:	c218                	sw	a4,0(a2)
    1302:	00000003          	lb	zero,0(zero) # 0 <_entry>
    1306:	0000                	unimp
    1308:	9a00                	.2byte	0x9a00
    130a:	0005                	c.nop	1
    130c:	0000                	unimp
    130e:	011f 045d 0000      	.byte	0x1f, 0x01, 0x5d, 0x04, 0x00, 0x00
    1314:	1a01                	addi	s4,s4,-32
    1316:	04790107          	.4byte	0x4790107
    131a:	0000                	unimp
    131c:	02e8                	addi	a0,sp,332
    131e:	0000                	unimp
    1320:	0000                	unimp
    1322:	0000                	unimp
    1324:	034e                	slli	t1,t1,0x13
    1326:	0000                	unimp
    1328:	0000                	unimp
    132a:	0000                	unimp
    132c:	1306                	slli	t1,t1,0x21
    132e:	0000                	unimp
    1330:	1c01                	addi	s8,s8,-32
    1332:	20000007          	.4byte	0x20000007
    1336:	01f8                	addi	a4,sp,204
    1338:	0000                	unimp
    133a:	1e01                	addi	t3,t3,-32 # 19fe0 <ustack+0x8f00>
    133c:	420c                	lw	a1,0(a2)
    133e:	0000                	unimp
    1340:	7a00                	ld	s0,48(a2)
    1342:	21000013          	li	zero,528
    1346:	032c                	addi	a1,sp,392
    1348:	0000                	unimp
    134a:	0000                	unimp
    134c:	0000                	unimp
    134e:	0510                	addi	a2,sp,640
    1350:	0000                	unimp
    1352:	0122                	slli	sp,sp,0x8
    1354:	095a                	slli	s2,s2,0x16
    1356:	00045003          	lhu	zero,0(s0)
    135a:	0000                	unimp
    135c:	0000                	unimp
    135e:	0000                	unimp
    1360:	2300                	fld	fs0,0(a4)
    1362:	0350                	addi	a2,sp,388
    1364:	0000                	unimp
    1366:	4602                	lw	a2,0(sp)
    1368:	0101                	addi	sp,sp,0
    136a:	0042                	c.slli	zero,0x10
    136c:	0000                	unimp
    136e:	00073a03          	ld	s4,0(a4)
    1372:	2400                	fld	fs0,8(s0)
    1374:	0078                	addi	a4,sp,12
    1376:	4802                	lw	a6,0(sp)
    1378:	0a01                	addi	s4,s4,0
    137a:	0042                	c.slli	zero,0x10
    137c:	0000                	unimp
    137e:	2500                	fld	fs0,8(a0)
    1380:	0328                	addi	a0,sp,392
    1382:	0000                	unimp
    1384:	bf02                	fsd	ft0,440(sp)
    1386:	0101                	addi	sp,sp,0
    1388:	00075303          	lhu	t1,0(a4)
    138c:	2600                	fld	fs0,8(a2)
    138e:	0078                	addi	a4,sp,12
    1390:	bf02                	fsd	ft0,440(sp)
    1392:	4210                	lw	a2,0(a2)
    1394:	0000                	unimp
    1396:	0000                	unimp
    1398:	0003fd27          	.4byte	0x3fd27
    139c:	0200                	addi	s0,sp,256
    139e:	00420197          	auipc	gp,0x420
    13a2:	0000                	unimp
    13a4:	00076f03          	lwu	t5,0(a4)
    13a8:	2800                	fld	fs0,16(s0)
    13aa:	0078                	addi	a4,sp,12
    13ac:	9902                	jalr	s2
    13ae:	420a                	lw	tp,128(sp)
    13b0:	0000                	unimp
    13b2:	0000                	unimp
    13b4:	ec25                	bnez	s0,142c <stack0+0x41c>
    13b6:	02000003          	lb	zero,32(zero) # 20 <start+0x4>
    13ba:	0191                	addi	gp,gp,4 # 4213a2 <ustack+0x4102c2>
    13bc:	0301                	addi	t1,t1,0
    13be:	0788                	addi	a0,sp,960
    13c0:	0000                	unimp
    13c2:	7826                	ld	a6,104(sp)
    13c4:	0200                	addi	s0,sp,256
    13c6:	0f91                	addi	t6,t6,4
    13c8:	0042                	c.slli	zero,0x10
    13ca:	0000                	unimp
    13cc:	2500                	fld	fs0,8(a0)
    13ce:	000003f3          	.4byte	0x3f3
    13d2:	5502                	lw	a0,32(sp)
    13d4:	0101                	addi	sp,sp,0
    13d6:	0007a103          	lw	sp,0(a5)
    13da:	2600                	fld	fs0,8(a2)
    13dc:	0078                	addi	a4,sp,12
    13de:	5502                	lw	a0,32(sp)
    13e0:	4212                	lw	tp,4(sp)
    13e2:	0000                	unimp
    13e4:	0000                	unimp
    13e6:	5529                	li	a0,-22
    13e8:	02000003          	lb	zero,32(zero) # 20 <start+0x4>
    13ec:	014d                	addi	sp,sp,19
    13ee:	0042                	c.slli	zero,0x10
    13f0:	0000                	unimp
    13f2:	00782803          	lw	a6,7(a6) # fffffffffffe6007 <ustack+0xfffffffffffd4f27>
    13f6:	4f02                	lw	t5,0(sp)
    13f8:	420a                	lw	tp,128(sp)
    13fa:	0000                	unimp
    13fc:	0000                	unimp
    13fe:	4900                	lw	s0,16(a0)
    1400:	0000                	unimp
    1402:	0200                	addi	s0,sp,256
    1404:	a300                	fsd	fs0,0(a4)
    1406:	08000007          	.4byte	0x8000007
    140a:	8501                	c.srai64	a0
    140c:	0000                	unimp
    140e:	0c00                	addi	s0,sp,528
    1410:	0464                	addi	s1,sp,524
    1412:	0000                	unimp
    1414:	0198                	addi	a4,sp,192
    1416:	0000                	unimp
    1418:	041c                	addi	a5,sp,512
    141a:	0000                	unimp
    141c:	0000                	unimp
    141e:	0000                	unimp
    1420:	0430                	addi	a2,sp,520
    1422:	0000                	unimp
    1424:	0000                	unimp
    1426:	0000                	unimp
    1428:	00000b47          	fmsub.s	fs6,ft0,ft0,ft0,rne
    142c:	0102                	c.slli64	sp
    142e:	0404                	addi	s1,sp,512
    1430:	0000                	unimp
    1432:	0101                	addi	sp,sp,0
    1434:	0106                	slli	sp,sp,0x1
    1436:	041c                	addi	a5,sp,512
    1438:	0000                	unimp
    143a:	0000                	unimp
    143c:	0000                	unimp
    143e:	0430                	addi	a2,sp,520
    1440:	0000                	unimp
    1442:	0000                	unimp
    1444:	0000                	unimp
    1446:	140e                	slli	s0,s0,0x23
    1448:	0000                	unimp
    144a:	0001                	nop

Disassembly of section .debug_abbrev:

0000000000000000 <.debug_abbrev>:
   0:	1101                	addi	sp,sp,-32
   2:	2501                	sext.w	a0,a0
   4:	130e                	slli	t1,t1,0x23
   6:	1b0e030b          	.4byte	0x1b0e030b
   a:	110e                	slli	sp,sp,0x23
   c:	1201                	addi	tp,tp,-32 # ffffffffffffffe0 <ustack+0xfffffffffffeef00>
   e:	1001                	c.nop	-32
  10:	0006                	c.slli	zero,0x1
  12:	0200                	addi	s0,sp,256
  14:	0024                	addi	s1,sp,8
  16:	0b3e0b0b          	.4byte	0xb3e0b0b
  1a:	00000e03          	lb	t3,0(zero) # 0 <_entry>
  1e:	03001603          	lh	a2,48(zero) # 30 <start+0x14>
  22:	3a0e                	fld	fs4,224(sp)
  24:	390b3b0b          	.4byte	0x390b3b0b
  28:	0013490b          	.4byte	0x13490b
  2c:	0400                	addi	s0,sp,512
  2e:	0024                	addi	s1,sp,8
  30:	0b3e0b0b          	.4byte	0xb3e0b0b
  34:	00000803          	lb	a6,0(zero) # 0 <_entry>
  38:	0105                	addi	sp,sp,1
  3a:	4901                	li	s2,0
  3c:	00130113          	addi	sp,t1,1
  40:	0600                	addi	s0,sp,768
  42:	0021                	c.nop	8
  44:	1349                	addi	t1,t1,-14
  46:	0000052f          	.4byte	0x52f
  4a:	03003407          	fld	fs0,48(zero) # 30 <start+0x14>
  4e:	3a0e                	fld	fs4,224(sp)
  50:	390b3b0b          	.4byte	0x390b3b0b
  54:	3f13490b          	.4byte	0x3f13490b
  58:	880c                	.2byte	0x880c
  5a:	0b01                	addi	s6,s6,0
  5c:	0a02                	c.slli64	s4
  5e:	0000                	unimp
  60:	2e08                	fld	fa0,24(a2)
  62:	3f00                	fld	fs0,56(a4)
  64:	030c                	addi	a1,sp,384
  66:	3a0e                	fld	fs4,224(sp)
  68:	390b3b0b          	.4byte	0x390b3b0b
  6c:	3c0c270b          	.4byte	0x3c0c270b
  70:	000c                	.2byte	0xc
  72:	0900                	addi	s0,sp,144
  74:	002e                	c.slli	zero,0xb
  76:	0e030c3f 0b3b0b3a 	.8byte	0xb3b0b3a0e030c3f
  7e:	0b39                	addi	s6,s6,14
  80:	13490c27          	.4byte	0x13490c27
  84:	0c3c                	addi	a5,sp,536
  86:	0000                	unimp
  88:	2e0a                	fld	ft8,128(sp)
  8a:	3f01                	addiw	t5,t5,-32 # fe0 <process_entry+0xbc4>
  8c:	030c                	addi	a1,sp,384
  8e:	3a0e                	fld	fs4,224(sp)
  90:	390b3b0b          	.4byte	0x390b3b0b
  94:	1201110b          	.4byte	0x1201110b
  98:	4001                	c.li	zero,0
  9a:	9706                	add	a4,a4,ra
  9c:	0c42                	slli	s8,s8,0x10
  9e:	1301                	addi	t1,t1,-32
  a0:	0000                	unimp
  a2:	0300340b          	.4byte	0x300340b
  a6:	3a08                	fld	fa0,48(a2)
  a8:	390b3b0b          	.4byte	0x390b3b0b
  ac:	0213490b          	.4byte	0x213490b
  b0:	0006                	c.slli	zero,0x1
  b2:	0c00                	addi	s0,sp,528
  b4:	011d                	addi	sp,sp,7
  b6:	1331                	addi	t1,t1,-20
  b8:	0111                	addi	sp,sp,4
  ba:	0112                	slli	sp,sp,0x4
  bc:	0b58                	addi	a4,sp,404
  be:	0b59                	addi	s6,s6,22
  c0:	13010b57          	.4byte	0x13010b57
  c4:	0000                	unimp
  c6:	340d                	addiw	s0,s0,-29
  c8:	3100                	fld	fs0,32(a0)
  ca:	0e000013          	li	zero,224
  ce:	011d                	addi	sp,sp,7
  d0:	1331                	addi	t1,t1,-20
  d2:	0152                	slli	sp,sp,0x14
  d4:	0655                	addi	a2,a2,21
  d6:	0b58                	addi	a4,sp,404
  d8:	0b59                	addi	s6,s6,22
  da:	13010b57          	.4byte	0x13010b57
  de:	0000                	unimp
  e0:	3100050f          	.4byte	0x3100050f
  e4:	00060213          	mv	tp,a2
  e8:	1000                	addi	s0,sp,32
  ea:	0005                	c.nop	1
  ec:	1331                	addi	t1,t1,-20
  ee:	0000                	unimp
  f0:	8911                	andi	a0,a0,4
  f2:	0182                	c.slli64	gp
  f4:	1100                	addi	s0,sp,160
  f6:	3101                	addiw	sp,sp,-32
  f8:	12000013          	li	zero,288
  fc:	012e                	slli	sp,sp,0xb
  fe:	0b3a0e03          	lb	t3,179(s4)
 102:	0b39053b          	.4byte	0xb39053b
 106:	0b200c27          	.4byte	0xb200c27
 10a:	1301                	addi	t1,t1,-32
 10c:	0000                	unimp
 10e:	03000513          	li	a0,48
 112:	3a08                	fld	fa0,48(a2)
 114:	39053b0b          	.4byte	0x39053b0b
 118:	0013490b          	.4byte	0x13490b
 11c:	1400                	addi	s0,sp,544
 11e:	012e                	slli	sp,sp,0xb
 120:	0b3a0e03          	lb	t3,179(s4)
 124:	0b390b3b          	.4byte	0xb390b3b
 128:	0b200c27          	.4byte	0xb200c27
 12c:	1301                	addi	t1,t1,-32
 12e:	0000                	unimp
 130:	0515                	addi	a0,a0,5
 132:	0300                	addi	s0,sp,384
 134:	3a08                	fld	fa0,48(a2)
 136:	390b3b0b          	.4byte	0x390b3b0b
 13a:	0013490b          	.4byte	0x13490b
 13e:	1600                	addi	s0,sp,800
 140:	012e                	slli	sp,sp,0xb
 142:	0b3a0e03          	lb	t3,179(s4)
 146:	0b390b3b          	.4byte	0xb390b3b
 14a:	1349                	addi	t1,t1,-14
 14c:	0b20                	addi	s0,sp,408
 14e:	1301                	addi	t1,t1,-32
 150:	0000                	unimp
 152:	03003417          	auipc	s0,0x3003
 156:	3a08                	fld	fa0,48(a2)
 158:	390b3b0b          	.4byte	0x390b3b0b
 15c:	0013490b          	.4byte	0x13490b
 160:	1800                	addi	s0,sp,48
 162:	012e                	slli	sp,sp,0xb
 164:	0b3a0e03          	lb	t3,179(s4)
 168:	0b390b3b          	.4byte	0xb390b3b
 16c:	1349                	addi	t1,t1,-14
 16e:	0b20                	addi	s0,sp,408
 170:	0000                	unimp
 172:	0100                	addi	s0,sp,128
 174:	0111                	addi	sp,sp,4
 176:	0e25                	addi	t3,t3,9
 178:	0e030b13          	addi	s6,t1,224
 17c:	01110e1b          	addiw	t3,sp,17
 180:	0112                	slli	sp,sp,0x4
 182:	0610                	addi	a2,sp,768
 184:	0000                	unimp
 186:	1602                	slli	a2,a2,0x20
 188:	0300                	addi	s0,sp,384
 18a:	3a0e                	fld	fs4,224(sp)
 18c:	390b3b0b          	.4byte	0x390b3b0b
 190:	0013490b          	.4byte	0x13490b
 194:	0300                	addi	s0,sp,384
 196:	0024                	addi	s1,sp,8
 198:	0b3e0b0b          	.4byte	0xb3e0b0b
 19c:	00000e03          	lb	t3,0(zero) # 0 <_entry>
 1a0:	2404                	fld	fs1,8(s0)
 1a2:	0b00                	addi	s0,sp,400
 1a4:	030b3e0b          	.4byte	0x30b3e0b
 1a8:	0008                	.2byte	0x8
 1aa:	0500                	addi	s0,sp,640
 1ac:	08030113          	addi	sp,t1,128
 1b0:	0b3a050b          	.4byte	0xb3a050b
 1b4:	0b390b3b          	.4byte	0xb390b3b
 1b8:	1301                	addi	t1,t1,-32
 1ba:	0000                	unimp
 1bc:	0d06                	slli	s10,s10,0x1
 1be:	0300                	addi	s0,sp,384
 1c0:	3a0e                	fld	fs4,224(sp)
 1c2:	390b3b0b          	.4byte	0x390b3b0b
 1c6:	3813490b          	.4byte	0x3813490b
 1ca:	000a                	c.slli	zero,0x2
 1cc:	0700                	addi	s0,sp,896
 1ce:	000d                	c.nop	3
 1d0:	0b3a0803          	lb	a6,179(s4)
 1d4:	0b390b3b          	.4byte	0xb390b3b
 1d8:	1349                	addi	t1,t1,-14
 1da:	0a38                	addi	a4,sp,280
 1dc:	0000                	unimp
 1de:	0f08                	addi	a0,sp,912
 1e0:	0b00                	addi	s0,sp,400
 1e2:	0013490b          	.4byte	0x13490b
 1e6:	0900                	addi	s0,sp,144
 1e8:	0101                	addi	sp,sp,0
 1ea:	1349                	addi	t1,t1,-14
 1ec:	1301                	addi	t1,t1,-32
 1ee:	0000                	unimp
 1f0:	210a                	fld	ft2,128(sp)
 1f2:	4900                	lw	s0,16(a0)
 1f4:	00052f13          	slti	t5,a0,0
 1f8:	0b00                	addi	s0,sp,400
 1fa:	012e                	slli	sp,sp,0xb
 1fc:	0e030c3f 0b3b0b3a 	.8byte	0xb3b0b3a0e030c3f
 204:	0b39                	addi	s6,s6,14
 206:	13490c27          	.4byte	0x13490c27
 20a:	0c3c                	addi	a5,sp,536
 20c:	1301                	addi	t1,t1,-32
 20e:	0000                	unimp
 210:	050c                	addi	a1,sp,640
 212:	4900                	lw	s0,16(a0)
 214:	0d000013          	li	zero,208
 218:	0b0b000f          	.4byte	0xb0b000f
 21c:	0000                	unimp
 21e:	260e                	fld	fa2,192(sp)
 220:	0000                	unimp
 222:	0f00                	addi	s0,sp,912
 224:	012e                	slli	sp,sp,0xb
 226:	0e030c3f 0b3b0b3a 	.8byte	0xb3b0b3a0e030c3f
 22e:	0b39                	addi	s6,s6,14
 230:	0c3c0c27          	.4byte	0xc3c0c27
 234:	1301                	addi	t1,t1,-32
 236:	0000                	unimp
 238:	2e10                	fld	fa2,24(a2)
 23a:	3f01                	addiw	t5,t5,-32
 23c:	030c                	addi	a1,sp,384
 23e:	3a0e                	fld	fs4,224(sp)
 240:	390b3b0b          	.4byte	0x390b3b0b
 244:	110c270b          	.4byte	0x110c270b
 248:	1201                	addi	tp,tp,-32 # ffffffffffffffe0 <ustack+0xfffffffffffeef00>
 24a:	4001                	c.li	zero,0
 24c:	9706                	add	a4,a4,ra
 24e:	0c42                	slli	s8,s8,0x10
 250:	0000                	unimp
 252:	0511                	addi	a0,a0,4
 254:	0300                	addi	s0,sp,384
 256:	3a08                	fld	fa0,48(a2)
 258:	390b3b0b          	.4byte	0x390b3b0b
 25c:	0213490b          	.4byte	0x213490b
 260:	0006                	c.slli	zero,0x1
 262:	1200                	addi	s0,sp,288
 264:	0034                	addi	a3,sp,8
 266:	0b3a0e03          	lb	t3,179(s4)
 26a:	0b390b3b          	.4byte	0xb390b3b
 26e:	1349                	addi	t1,t1,-14
 270:	0602                	c.slli64	a2
 272:	0000                	unimp
 274:	01828913          	addi	s2,t0,24
 278:	1101                	addi	sp,sp,-32
 27a:	3101                	addiw	sp,sp,-32
 27c:	00130113          	addi	sp,t1,1
 280:	1400                	addi	s0,sp,544
 282:	828a                	mv	t0,sp
 284:	0001                	nop
 286:	0a02                	c.slli64	s4
 288:	4291                	li	t0,4
 28a:	000a                	c.slli	zero,0x2
 28c:	1500                	addi	s0,sp,672
 28e:	8289                	srli	a3,a3,0x2
 290:	0101                	addi	sp,sp,0
 292:	0111                	addi	sp,sp,4
 294:	1331                	addi	t1,t1,-20
 296:	0000                	unimp
 298:	0100                	addi	s0,sp,128
 29a:	0111                	addi	sp,sp,4
 29c:	0e25                	addi	t3,t3,9
 29e:	0e030b13          	addi	s6,t1,224
 2a2:	01110e1b          	addiw	t3,sp,17
 2a6:	0112                	slli	sp,sp,0x4
 2a8:	0610                	addi	a2,sp,768
 2aa:	0000                	unimp
 2ac:	1602                	slli	a2,a2,0x20
 2ae:	0300                	addi	s0,sp,384
 2b0:	3a0e                	fld	fs4,224(sp)
 2b2:	390b3b0b          	.4byte	0x390b3b0b
 2b6:	0013490b          	.4byte	0x13490b
 2ba:	0300                	addi	s0,sp,384
 2bc:	0024                	addi	s1,sp,8
 2be:	0b3e0b0b          	.4byte	0xb3e0b0b
 2c2:	00000e03          	lb	t3,0(zero) # 0 <_entry>
 2c6:	2604                	fld	fs1,8(a2)
 2c8:	4900                	lw	s0,16(a0)
 2ca:	05000013          	li	zero,80
 2ce:	012e                	slli	sp,sp,0xb
 2d0:	0e030c3f 0b3b0b3a 	.8byte	0xb3b0b3a0e030c3f
 2d8:	0b39                	addi	s6,s6,14
 2da:	13490c27          	.4byte	0x13490c27
 2de:	0111                	addi	sp,sp,4
 2e0:	0112                	slli	sp,sp,0x4
 2e2:	0640                	addi	s0,sp,772
 2e4:	010c4297          	auipc	t0,0x10c4
 2e8:	06000013          	li	zero,96
 2ec:	0005                	c.nop	1
 2ee:	0b3a0803          	lb	a6,179(s4)
 2f2:	0b390b3b          	.4byte	0xb390b3b
 2f6:	1349                	addi	t1,t1,-14
 2f8:	0602                	c.slli64	a2
 2fa:	0000                	unimp
 2fc:	03003407          	fld	fs0,48(zero) # 30 <start+0x14>
 300:	3a08                	fld	fa0,48(a2)
 302:	390b3b0b          	.4byte	0x390b3b0b
 306:	0213490b          	.4byte	0x213490b
 30a:	0006                	c.slli	zero,0x1
 30c:	0800                	addi	s0,sp,16
 30e:	0024                	addi	s1,sp,8
 310:	0b3e0b0b          	.4byte	0xb3e0b0b
 314:	00000803          	lb	a6,0(zero) # 0 <_entry>
 318:	0f09                	addi	t5,t5,2
 31a:	0b00                	addi	s0,sp,400
 31c:	0013490b          	.4byte	0x13490b
 320:	0a00                	addi	s0,sp,272
 322:	0034                	addi	a3,sp,8
 324:	0b3a0803          	lb	a6,179(s4)
 328:	0b390b3b          	.4byte	0xb390b3b
 32c:	1349                	addi	t1,t1,-14
 32e:	0a02                	c.slli64	s4
 330:	0000                	unimp
 332:	0182890b          	.4byte	0x182890b
 336:	1101                	addi	sp,sp,-32
 338:	3101                	addiw	sp,sp,-32
 33a:	0c000013          	li	zero,192
 33e:	828a                	mv	t0,sp
 340:	0001                	nop
 342:	0a02                	c.slli64	s4
 344:	4291                	li	t0,4
 346:	000a                	c.slli	zero,0x2
 348:	0d00                	addi	s0,sp,656
 34a:	0b0b000f          	.4byte	0xb0b000f
 34e:	0000                	unimp
 350:	260e                	fld	fa2,192(sp)
 352:	0000                	unimp
 354:	0f00                	addi	s0,sp,912
 356:	0005                	c.nop	1
 358:	0b3a0803          	lb	a6,179(s4)
 35c:	0b390b3b          	.4byte	0xb390b3b
 360:	1349                	addi	t1,t1,-14
 362:	0a02                	c.slli64	s4
 364:	0000                	unimp
 366:	2e10                	fld	fa2,24(a2)
 368:	3f01                	addiw	t5,t5,-32
 36a:	030c                	addi	a1,sp,384
 36c:	3a0e                	fld	fs4,224(sp)
 36e:	390b3b0b          	.4byte	0x390b3b0b
 372:	490c270b          	.4byte	0x490c270b
 376:	12011113          	.4byte	0x12011113
 37a:	4001                	c.li	zero,0
 37c:	9706                	add	a4,a4,ra
 37e:	0c42                	slli	s8,s8,0x10
 380:	0000                	unimp
 382:	3411                	addiw	s0,s0,-28 # 3003136 <ustack+0x2ff2056>
 384:	0300                	addi	s0,sp,384
 386:	3a0e                	fld	fs4,224(sp)
 388:	390b3b0b          	.4byte	0x390b3b0b
 38c:	0213490b          	.4byte	0x213490b
 390:	000a                	c.slli	zero,0x2
 392:	0000                	unimp
 394:	1101                	addi	sp,sp,-32
 396:	2501                	sext.w	a0,a0
 398:	130e                	slli	t1,t1,0x23
 39a:	1b0e030b          	.4byte	0x1b0e030b
 39e:	110e                	slli	sp,sp,0x23
 3a0:	1201                	addi	tp,tp,-32 # ffffffffffffffe0 <ustack+0xfffffffffffeef00>
 3a2:	1001                	c.nop	-32
 3a4:	0006                	c.slli	zero,0x1
 3a6:	0200                	addi	s0,sp,256
 3a8:	0024                	addi	s1,sp,8
 3aa:	0b3e0b0b          	.4byte	0xb3e0b0b
 3ae:	00000e03          	lb	t3,0(zero) # 0 <_entry>
 3b2:	0b002403          	lw	s0,176(zero) # b0 <userret+0x14>
 3b6:	030b3e0b          	.4byte	0x30b3e0b
 3ba:	0008                	.2byte	0x8
 3bc:	0400                	addi	s0,sp,512
 3be:	002e                	c.slli	zero,0xb
 3c0:	0e030c3f 0b3b0b3a 	.8byte	0xb3b0b3a0e030c3f
 3c8:	0b39                	addi	s6,s6,14
 3ca:	13490c27          	.4byte	0x13490c27
 3ce:	0111                	addi	sp,sp,4
 3d0:	0112                	slli	sp,sp,0x4
 3d2:	0640                	addi	s0,sp,772
 3d4:	000c4297          	auipc	t0,0xc4
 3d8:	0500                	addi	s0,sp,640
 3da:	012e                	slli	sp,sp,0xb
 3dc:	0e030c3f 0b3b0b3a 	.8byte	0xb3b0b3a0e030c3f
 3e4:	0b39                	addi	s6,s6,14
 3e6:	01110c27          	.4byte	0x1110c27
 3ea:	0112                	slli	sp,sp,0x4
 3ec:	0640                	addi	s0,sp,772
 3ee:	010c4297          	auipc	t0,0x10c4
 3f2:	06000013          	li	zero,96
 3f6:	0005                	c.nop	1
 3f8:	0b3a0803          	lb	a6,179(s4)
 3fc:	0b390b3b          	.4byte	0xb390b3b
 400:	1349                	addi	t1,t1,-14
 402:	0a02                	c.slli64	s4
 404:	0000                	unimp
 406:	0b000f07          	.4byte	0xb000f07
 40a:	0013490b          	.4byte	0x13490b
 40e:	0000                	unimp
 410:	1101                	addi	sp,sp,-32
 412:	2501                	sext.w	a0,a0
 414:	130e                	slli	t1,t1,0x23
 416:	1b0e030b          	.4byte	0x1b0e030b
 41a:	110e                	slli	sp,sp,0x23
 41c:	1201                	addi	tp,tp,-32 # ffffffffffffffe0 <ustack+0xfffffffffffeef00>
 41e:	1001                	c.nop	-32
 420:	0006                	c.slli	zero,0x1
 422:	0200                	addi	s0,sp,256
 424:	0016                	c.slli	zero,0x5
 426:	0b3a0e03          	lb	t3,179(s4)
 42a:	0b390b3b          	.4byte	0xb390b3b
 42e:	1349                	addi	t1,t1,-14
 430:	0000                	unimp
 432:	0b002403          	lw	s0,176(zero) # b0 <userret+0x14>
 436:	030b3e0b          	.4byte	0x30b3e0b
 43a:	000e                	c.slli	zero,0x3
 43c:	0400                	addi	s0,sp,512
 43e:	0024                	addi	s1,sp,8
 440:	0b3e0b0b          	.4byte	0xb3e0b0b
 444:	00000803          	lb	a6,0(zero) # 0 <_entry>
 448:	1305                	addi	t1,t1,-31
 44a:	0301                	addi	t1,t1,0
 44c:	0b0e                	slli	s6,s6,0x3
 44e:	3b0b3a0b          	.4byte	0x3b0b3a0b
 452:	010b390b          	.4byte	0x10b390b
 456:	06000013          	li	zero,96
 45a:	000d                	c.nop	3
 45c:	0b3a0e03          	lb	t3,179(s4)
 460:	0b390b3b          	.4byte	0xb390b3b
 464:	1349                	addi	t1,t1,-14
 466:	0a38                	addi	a4,sp,280
 468:	0000                	unimp
 46a:	03000d07          	.4byte	0x3000d07
 46e:	3a08                	fld	fa0,48(a2)
 470:	390b3b0b          	.4byte	0x390b3b0b
 474:	3813490b          	.4byte	0x3813490b
 478:	000a                	c.slli	zero,0x2
 47a:	0800                	addi	s0,sp,16
 47c:	0101                	addi	sp,sp,0
 47e:	1349                	addi	t1,t1,-14
 480:	1301                	addi	t1,t1,-32
 482:	0000                	unimp
 484:	2109                	addiw	sp,sp,2
 486:	4900                	lw	s0,16(a0)
 488:	000b2f13          	slti	t5,s6,0
 48c:	0a00                	addi	s0,sp,272
 48e:	012e                	slli	sp,sp,0xb
 490:	0e030c3f 0b3b0b3a 	.8byte	0xb3b0b3a0e030c3f
 498:	0b39                	addi	s6,s6,14
 49a:	0c3c0c27          	.4byte	0xc3c0c27
 49e:	1301                	addi	t1,t1,-32
 4a0:	0000                	unimp
 4a2:	4900050b          	.4byte	0x4900050b
 4a6:	0c000013          	li	zero,192
 4aa:	0b0b000f          	.4byte	0xb0b000f
 4ae:	1349                	addi	t1,t1,-14
 4b0:	0000                	unimp
 4b2:	2e0d                	addiw	t3,t3,3
 4b4:	3f01                	addiw	t5,t5,-32
 4b6:	030c                	addi	a1,sp,384
 4b8:	3a0e                	fld	fs4,224(sp)
 4ba:	390b3b0b          	.4byte	0x390b3b0b
 4be:	490c270b          	.4byte	0x490c270b
 4c2:	010c3c13          	sltiu	s8,s8,16
 4c6:	0e000013          	li	zero,224
 4ca:	0b0b000f          	.4byte	0xb0b000f
 4ce:	0000                	unimp
 4d0:	0000260f          	.4byte	0x260f
 4d4:	1000                	addi	s0,sp,32
 4d6:	012e                	slli	sp,sp,0xb
 4d8:	0e030c3f 0b3b0b3a 	.8byte	0xb3b0b3a0e030c3f
 4e0:	0b39                	addi	s6,s6,14
 4e2:	13490c27          	.4byte	0x13490c27
 4e6:	0111                	addi	sp,sp,4
 4e8:	0112                	slli	sp,sp,0x4
 4ea:	0640                	addi	s0,sp,772
 4ec:	000c4297          	auipc	t0,0xc4
 4f0:	1100                	addi	s0,sp,160
 4f2:	0034                	addi	a3,sp,8
 4f4:	0b3a0803          	lb	a6,179(s4)
 4f8:	0b390b3b          	.4byte	0xb390b3b
 4fc:	1349                	addi	t1,t1,-14
 4fe:	0a02                	c.slli64	s4
 500:	0000                	unimp
 502:	8912                	mv	s2,tp
 504:	0182                	c.slli64	gp
 506:	1101                	addi	sp,sp,-32
 508:	3101                	addiw	sp,sp,-32
 50a:	00130113          	addi	sp,t1,1
 50e:	1300                	addi	s0,sp,416
 510:	828a                	mv	t0,sp
 512:	0001                	nop
 514:	0a02                	c.slli64	s4
 516:	4291                	li	t0,4
 518:	000a                	c.slli	zero,0x2
 51a:	1400                	addi	s0,sp,544
 51c:	8289                	srli	a3,a3,0x2
 51e:	0101                	addi	sp,sp,0
 520:	0111                	addi	sp,sp,4
 522:	1331                	addi	t1,t1,-20
 524:	0000                	unimp
 526:	0100                	addi	s0,sp,128
 528:	0111                	addi	sp,sp,4
 52a:	0e25                	addi	t3,t3,9
 52c:	0e030b13          	addi	s6,t1,224
 530:	01110e1b          	addiw	t3,sp,17
 534:	0112                	slli	sp,sp,0x4
 536:	0610                	addi	a2,sp,768
 538:	0000                	unimp
 53a:	2402                	fld	fs0,0(sp)
 53c:	0b00                	addi	s0,sp,400
 53e:	030b3e0b          	.4byte	0x30b3e0b
 542:	000e                	c.slli	zero,0x3
 544:	0300                	addi	s0,sp,384
 546:	0016                	c.slli	zero,0x5
 548:	0b3a0e03          	lb	t3,179(s4)
 54c:	0b390b3b          	.4byte	0xb390b3b
 550:	1349                	addi	t1,t1,-14
 552:	0000                	unimp
 554:	1604                	addi	s1,sp,800
 556:	0300                	addi	s0,sp,384
 558:	3a0e                	fld	fs4,224(sp)
 55a:	39053b0b          	.4byte	0x39053b0b
 55e:	0013490b          	.4byte	0x13490b
 562:	0500                	addi	s0,sp,640
 564:	0b0b000f          	.4byte	0xb0b000f
 568:	1349                	addi	t1,t1,-14
 56a:	0000                	unimp
 56c:	2406                	fld	fs0,64(sp)
 56e:	0b00                	addi	s0,sp,400
 570:	030b3e0b          	.4byte	0x30b3e0b
 574:	0008                	.2byte	0x8
 576:	0700                	addi	s0,sp,896
 578:	0e030113          	addi	sp,t1,224
 57c:	0b3a0b0b          	.4byte	0xb3a0b0b
 580:	0b390b3b          	.4byte	0xb390b3b
 584:	1301                	addi	t1,t1,-32
 586:	0000                	unimp
 588:	0d08                	addi	a0,sp,656
 58a:	0300                	addi	s0,sp,384
 58c:	3a08                	fld	fa0,48(a2)
 58e:	390b3b0b          	.4byte	0x390b3b0b
 592:	3813490b          	.4byte	0x3813490b
 596:	000a                	c.slli	zero,0x2
 598:	0900                	addi	s0,sp,144
 59a:	000d                	c.nop	3
 59c:	0b3a0e03          	lb	t3,179(s4)
 5a0:	0b390b3b          	.4byte	0xb390b3b
 5a4:	1349                	addi	t1,t1,-14
 5a6:	0a38                	addi	a4,sp,280
 5a8:	0000                	unimp
 5aa:	130a                	slli	t1,t1,0x22
 5ac:	0301                	addi	t1,t1,0
 5ae:	0b0e                	slli	s6,s6,0x3
 5b0:	3a05                	addiw	s4,s4,-31
 5b2:	390b3b0b          	.4byte	0x390b3b0b
 5b6:	0013010b          	.4byte	0x13010b
 5ba:	0b00                	addi	s0,sp,400
 5bc:	0104                	addi	s1,sp,128
 5be:	0b3e0e03          	lb	t3,179(t3)
 5c2:	13490b0b          	.4byte	0x13490b0b
 5c6:	0b3a                	slli	s6,s6,0xe
 5c8:	0b390b3b          	.4byte	0xb390b3b
 5cc:	1301                	addi	t1,t1,-32
 5ce:	0000                	unimp
 5d0:	280c                	fld	fa1,16(s0)
 5d2:	0300                	addi	s0,sp,384
 5d4:	1c0e                	slli	s8,s8,0x23
 5d6:	0d00000b          	.4byte	0xd00000b
 5da:	0b0b000f          	.4byte	0xb0b000f
 5de:	0000                	unimp
 5e0:	010e                	slli	sp,sp,0x3
 5e2:	4901                	li	s2,0
 5e4:	00130113          	addi	sp,t1,1
 5e8:	0f00                	addi	s0,sp,912
 5ea:	0021                	c.nop	8
 5ec:	1349                	addi	t1,t1,-14
 5ee:	00000b2f          	.4byte	0xb2f
 5f2:	2110                	fld	fa2,0(a0)
 5f4:	4900                	lw	s0,16(a0)
 5f6:	00052f13          	slti	t5,a0,0
 5fa:	1100                	addi	s0,sp,160
 5fc:	0034                	addi	a3,sp,8
 5fe:	0b3a0e03          	lb	t3,179(s4)
 602:	0b390b3b          	.4byte	0xb390b3b
 606:	1349                	addi	t1,t1,-14
 608:	01880c3f 000a020b 	.8byte	0xa020b01880c3f
 610:	1200                	addi	s0,sp,288
 612:	0034                	addi	a3,sp,8
 614:	0b3a0803          	lb	a6,179(s4)
 618:	0b390b3b          	.4byte	0xb390b3b
 61c:	1349                	addi	t1,t1,-14
 61e:	0a020c3f 34130000 	.8byte	0x341300000a020c3f
 626:	0300                	addi	s0,sp,384
 628:	3a0e                	fld	fs4,224(sp)
 62a:	390b3b0b          	.4byte	0x390b3b0b
 62e:	3f13490b          	.4byte	0x3f13490b
 632:	020c                	addi	a1,sp,256
 634:	000a                	c.slli	zero,0x2
 636:	1400                	addi	s0,sp,544
 638:	002e                	c.slli	zero,0xb
 63a:	0e030c3f 0b3b0b3a 	.8byte	0xb3b0b3a0e030c3f
 642:	0b39                	addi	s6,s6,14
 644:	0c3c0c27          	.4byte	0xc3c0c27
 648:	0000                	unimp
 64a:	2e15                	addiw	t3,t3,5
 64c:	3f01                	addiw	t5,t5,-32
 64e:	030c                	addi	a1,sp,384
 650:	3a0e                	fld	fs4,224(sp)
 652:	390b3b0b          	.4byte	0x390b3b0b
 656:	3c0c270b          	.4byte	0x3c0c270b
 65a:	010c                	addi	a1,sp,128
 65c:	16000013          	li	zero,352
 660:	0005                	c.nop	1
 662:	1349                	addi	t1,t1,-14
 664:	0000                	unimp
 666:	3f012e17          	auipc	t3,0x3f012
 66a:	030c                	addi	a1,sp,384
 66c:	3a0e                	fld	fs4,224(sp)
 66e:	390b3b0b          	.4byte	0x390b3b0b
 672:	110c270b          	.4byte	0x110c270b
 676:	1201                	addi	tp,tp,-32 # ffffffffffffffe0 <ustack+0xfffffffffffeef00>
 678:	4001                	c.li	zero,0
 67a:	9706                	add	a4,a4,ra
 67c:	0c42                	slli	s8,s8,0x10
 67e:	1301                	addi	t1,t1,-32
 680:	0000                	unimp
 682:	8918                	.2byte	0x8918
 684:	0182                	c.slli64	gp
 686:	1100                	addi	s0,sp,160
 688:	3101                	addiw	sp,sp,-32
 68a:	19000013          	li	zero,400
 68e:	0034                	addi	a3,sp,8
 690:	0b3a0803          	lb	a6,179(s4)
 694:	0b390b3b          	.4byte	0xb390b3b
 698:	1349                	addi	t1,t1,-14
 69a:	0602                	c.slli64	a2
 69c:	0000                	unimp
 69e:	1d1a                	slli	s10,s10,0x26
 6a0:	3101                	addiw	sp,sp,-32
 6a2:	12011113          	.4byte	0x12011113
 6a6:	5801                	li	a6,-32
 6a8:	570b590b          	.4byte	0x570b590b
 6ac:	0013010b          	.4byte	0x13010b
 6b0:	1b00                	addi	s0,sp,432
 6b2:	0005                	c.nop	1
 6b4:	1331                	addi	t1,t1,-20
 6b6:	0602                	c.slli64	a2
 6b8:	0000                	unimp
 6ba:	341c                	fld	fa5,40(s0)
 6bc:	3100                	fld	fs0,32(a0)
 6be:	1d000013          	li	zero,464
 6c2:	011d                	addi	sp,sp,7
 6c4:	1331                	addi	t1,t1,-20
 6c6:	0152                	slli	sp,sp,0x14
 6c8:	0655                	addi	a2,a2,21
 6ca:	0b58                	addi	a4,sp,404
 6cc:	0b59                	addi	s6,s6,22
 6ce:	13010b57          	.4byte	0x13010b57
 6d2:	0000                	unimp
 6d4:	1d1e                	slli	s10,s10,0x27
 6d6:	3101                	addiw	sp,sp,-32
 6d8:	55015213          	.4byte	0x55015213
 6dc:	5806                	lw	a6,96(sp)
 6de:	570b590b          	.4byte	0x570b590b
 6e2:	1f00000b          	.4byte	0x1f00000b
 6e6:	012e                	slli	sp,sp,0xb
 6e8:	0e030c3f 0b3b0b3a 	.8byte	0xb3b0b3a0e030c3f
 6f0:	0b39                	addi	s6,s6,14
 6f2:	13490c27          	.4byte	0x13490c27
 6f6:	0111                	addi	sp,sp,4
 6f8:	0112                	slli	sp,sp,0x4
 6fa:	0640                	addi	s0,sp,772
 6fc:	010c4297          	auipc	t0,0x10c4
 700:	20000013          	li	zero,512
 704:	0034                	addi	a3,sp,8
 706:	0b3a0e03          	lb	t3,179(s4)
 70a:	0b390b3b          	.4byte	0xb390b3b
 70e:	1349                	addi	t1,t1,-14
 710:	0602                	c.slli64	a2
 712:	0000                	unimp
 714:	8921                	andi	a0,a0,8
 716:	0182                	c.slli64	gp
 718:	1101                	addi	sp,sp,-32
 71a:	3101                	addiw	sp,sp,-32
 71c:	22000013          	li	zero,544
 720:	828a                	mv	t0,sp
 722:	0001                	nop
 724:	0a02                	c.slli64	s4
 726:	4291                	li	t0,4
 728:	000a                	c.slli	zero,0x2
 72a:	2300                	fld	fs0,0(a4)
 72c:	012e                	slli	sp,sp,0xb
 72e:	0b3a0e03          	lb	t3,179(s4)
 732:	0b39053b          	.4byte	0xb39053b
 736:	1349                	addi	t1,t1,-14
 738:	0b20                	addi	s0,sp,408
 73a:	1301                	addi	t1,t1,-32
 73c:	0000                	unimp
 73e:	3424                	fld	fs1,104(s0)
 740:	0300                	addi	s0,sp,384
 742:	3a08                	fld	fa0,48(a2)
 744:	39053b0b          	.4byte	0x39053b0b
 748:	0013490b          	.4byte	0x13490b
 74c:	2500                	fld	fs0,8(a0)
 74e:	012e                	slli	sp,sp,0xb
 750:	0b3a0e03          	lb	t3,179(s4)
 754:	0b390b3b          	.4byte	0xb390b3b
 758:	0b200c27          	.4byte	0xb200c27
 75c:	1301                	addi	t1,t1,-32
 75e:	0000                	unimp
 760:	0526                	slli	a0,a0,0x9
 762:	0300                	addi	s0,sp,384
 764:	3a08                	fld	fa0,48(a2)
 766:	390b3b0b          	.4byte	0x390b3b0b
 76a:	0013490b          	.4byte	0x13490b
 76e:	2700                	fld	fs0,8(a4)
 770:	012e                	slli	sp,sp,0xb
 772:	0b3a0e03          	lb	t3,179(s4)
 776:	0b390b3b          	.4byte	0xb390b3b
 77a:	1349                	addi	t1,t1,-14
 77c:	0b20                	addi	s0,sp,408
 77e:	1301                	addi	t1,t1,-32
 780:	0000                	unimp
 782:	3428                	fld	fa0,104(s0)
 784:	0300                	addi	s0,sp,384
 786:	3a08                	fld	fa0,48(a2)
 788:	390b3b0b          	.4byte	0x390b3b0b
 78c:	0013490b          	.4byte	0x13490b
 790:	2900                	fld	fs0,16(a0)
 792:	012e                	slli	sp,sp,0xb
 794:	0b3a0e03          	lb	t3,179(s4)
 798:	0b390b3b          	.4byte	0xb390b3b
 79c:	1349                	addi	t1,t1,-14
 79e:	0b20                	addi	s0,sp,408
 7a0:	0000                	unimp
 7a2:	0100                	addi	s0,sp,128
 7a4:	0111                	addi	sp,sp,4
 7a6:	0e25                	addi	t3,t3,9 # 3f01266f <ustack+0x3f00158f>
 7a8:	0e030b13          	addi	s6,t1,224
 7ac:	01110e1b          	addiw	t3,sp,17
 7b0:	0112                	slli	sp,sp,0x4
 7b2:	0610                	addi	a2,sp,768
 7b4:	0000                	unimp
 7b6:	2e02                	fld	ft8,0(sp)
 7b8:	3f00                	fld	fs0,56(a4)
 7ba:	030c                	addi	a1,sp,384
 7bc:	3a0e                	fld	fs4,224(sp)
 7be:	390b3b0b          	.4byte	0x390b3b0b
 7c2:	110c270b          	.4byte	0x110c270b
 7c6:	1201                	addi	tp,tp,-32 # ffffffffffffffe0 <ustack+0xfffffffffffeef00>
 7c8:	4001                	c.li	zero,0
 7ca:	9706                	add	a4,a4,ra
 7cc:	0c42                	slli	s8,s8,0x10
 7ce:	0000                	unimp
	...

Disassembly of section .debug_loc:

0000000000000000 <.debug_loc>:
	...
       8:	0002                	c.slli64	zero
       a:	0000                	unimp
       c:	0000                	unimp
       e:	0000                	unimp
      10:	0002                	c.slli64	zero
      12:	0072                	c.slli	zero,0x1c
      14:	0002                	c.slli64	zero
      16:	0000                	unimp
      18:	0000                	unimp
      1a:	0000                	unimp
      1c:	0008                	.2byte	0x8
      1e:	0000                	unimp
      20:	0000                	unimp
      22:	0000                	unimp
      24:	0002                	c.slli64	zero
      26:	1072                	c.slli	zero,0x3c
      28:	0008                	.2byte	0x8
      2a:	0000                	unimp
      2c:	0000                	unimp
      2e:	0000                	unimp
      30:	0062                	c.slli	zero,0x18
      32:	0000                	unimp
      34:	0000                	unimp
      36:	0000                	unimp
      38:	0002                	c.slli64	zero
      3a:	0078                	addi	a4,sp,12
      3c:	0062                	c.slli	zero,0x18
      3e:	0000                	unimp
      40:	0000                	unimp
      42:	0000                	unimp
      44:	0064                	addi	s1,sp,12
      46:	0000                	unimp
      48:	0000                	unimp
      4a:	0000                	unimp
      4c:	0002                	c.slli64	zero
      4e:	1072                	c.slli	zero,0x3c
      50:	0064                	addi	s1,sp,12
      52:	0000                	unimp
      54:	0000                	unimp
      56:	0000                	unimp
      58:	0066                	c.slli	zero,0x19
      5a:	0000                	unimp
      5c:	0000                	unimp
      5e:	0000                	unimp
      60:	0002                	c.slli64	zero
      62:	0072                	c.slli	zero,0x1c
	...
      74:	0014                	.2byte	0x14
      76:	0000                	unimp
      78:	0000                	unimp
      7a:	0000                	unimp
      7c:	001c                	.2byte	0x1c
      7e:	0000                	unimp
      80:	0000                	unimp
      82:	0000                	unimp
      84:	0001                	nop
      86:	005f 0000 0000      	.byte	0x5f, 0x00, 0x00, 0x00, 0x00, 0x00
	...
      94:	0000                	unimp
      96:	1c00                	addi	s0,sp,560
      98:	0000                	unimp
      9a:	0000                	unimp
      9c:	0000                	unimp
      9e:	2400                	fld	fs0,8(s0)
      a0:	0000                	unimp
      a2:	0000                	unimp
      a4:	0000                	unimp
      a6:	0100                	addi	s0,sp,128
      a8:	5f00                	lw	s0,56(a4)
      aa:	0024                	addi	s1,sp,8
      ac:	0000                	unimp
      ae:	0000                	unimp
      b0:	0000                	unimp
      b2:	002c                	addi	a1,sp,8
      b4:	0000                	unimp
      b6:	0000                	unimp
      b8:	0000                	unimp
      ba:	007f0007          	.4byte	0x7f0007
      be:	000a                	c.slli	zero,0x2
      c0:	2108                	fld	fa0,0(a0)
      c2:	009f 0000 0000      	.byte	0x9f, 0x00, 0x00, 0x00, 0x00, 0x00
	...
      d0:	0000                	unimp
      d2:	1400                	addi	s0,sp,544
      d4:	0000                	unimp
      d6:	0000                	unimp
      d8:	0000                	unimp
      da:	1600                	addi	s0,sp,800
      dc:	0000                	unimp
      de:	0000                	unimp
      e0:	0000                	unimp
      e2:	0900                	addi	s0,sp,144
      e4:	7f00                	ld	s0,56(a4)
      e6:	0800                	addi	s0,sp,16
      e8:	2420                	fld	fs0,72(s0)
      ea:	2008                	fld	fa0,0(s0)
      ec:	9f26                	add	t5,t5,s1
      ee:	0016                	c.slli	zero,0x5
      f0:	0000                	unimp
      f2:	0000                	unimp
      f4:	0000                	unimp
      f6:	0018                	.2byte	0x18
      f8:	0000                	unimp
      fa:	0000                	unimp
      fc:	0000                	unimp
      fe:	0001                	nop
     100:	005f 0000 0000      	.byte	0x5f, 0x00, 0x00, 0x00, 0x00, 0x00
	...
     10e:	0000                	unimp
     110:	2400                	fld	fs0,8(s0)
     112:	0000                	unimp
     114:	0000                	unimp
     116:	0000                	unimp
     118:	2c00                	fld	fs0,24(s0)
     11a:	0000                	unimp
     11c:	0000                	unimp
     11e:	0000                	unimp
     120:	0700                	addi	s0,sp,896
     122:	7f00                	ld	s0,56(a4)
     124:	0a00                	addi	s0,sp,272
     126:	0800                	addi	s0,sp,16
     128:	9f21                	addw	a4,a4,s0
	...
     13a:	0030                	addi	a2,sp,8
     13c:	0000                	unimp
     13e:	0000                	unimp
     140:	0000                	unimp
     142:	0036                	c.slli	zero,0xd
     144:	0000                	unimp
     146:	0000                	unimp
     148:	0000                	unimp
     14a:	0002                	c.slli64	zero
     14c:	9f30                	.2byte	0x9f30
	...
     15e:	0042                	c.slli	zero,0x10
     160:	0000                	unimp
     162:	0000                	unimp
     164:	0000                	unimp
     166:	004a                	c.slli	zero,0x12
     168:	0000                	unimp
     16a:	0000                	unimp
     16c:	0000                	unimp
     16e:	0004                	.2byte	0x4
     170:	ff0a                	sd	sp,440(sp)
     172:	9fff                	.2byte	0x9fff
	...
     184:	004a                	c.slli	zero,0x12
     186:	0000                	unimp
     188:	0000                	unimp
     18a:	0000                	unimp
     18c:	004e                	c.slli	zero,0x13
     18e:	0000                	unimp
     190:	0000                	unimp
     192:	0000                	unimp
     194:	0004                	.2byte	0x4
     196:	ff0a                	sd	sp,440(sp)
     198:	9fff                	.2byte	0x9fff
	...
     1aa:	0052                	c.slli	zero,0x14
     1ac:	0000                	unimp
     1ae:	0000                	unimp
     1b0:	0000                	unimp
     1b2:	0056                	c.slli	zero,0x15
     1b4:	0000                	unimp
     1b6:	0000                	unimp
     1b8:	0000                	unimp
     1ba:	007f0007          	.4byte	0x7f0007
     1be:	220a                	fld	ft4,128(sp)
     1c0:	2102                	fld	ft2,0(sp)
     1c2:	569f 0000 0000      	.byte	0x9f, 0x56, 0x00, 0x00, 0x00, 0x00
     1c8:	0000                	unimp
     1ca:	5a00                	lw	s0,48(a2)
     1cc:	0000                	unimp
     1ce:	0000                	unimp
     1d0:	0000                	unimp
     1d2:	0100                	addi	s0,sp,128
     1d4:	5f00                	lw	s0,56(a4)
	...
     1ee:	0002                	c.slli64	zero
     1f0:	0000                	unimp
     1f2:	0000                	unimp
     1f4:	0000                	unimp
     1f6:	0002                	c.slli64	zero
     1f8:	0072                	c.slli	zero,0x1c
     1fa:	0002                	c.slli64	zero
     1fc:	0000                	unimp
     1fe:	0000                	unimp
     200:	0000                	unimp
     202:	000a                	c.slli	zero,0x2
     204:	0000                	unimp
     206:	0000                	unimp
     208:	0000                	unimp
     20a:	0002                	c.slli64	zero
     20c:	2072                	fld	ft0,280(sp)
     20e:	000a                	c.slli	zero,0x2
     210:	0000                	unimp
     212:	0000                	unimp
     214:	0000                	unimp
     216:	0040                	addi	s0,sp,4
     218:	0000                	unimp
     21a:	0000                	unimp
     21c:	0000                	unimp
     21e:	0002                	c.slli64	zero
     220:	0078                	addi	a4,sp,12
     222:	0040                	addi	s0,sp,4
     224:	0000                	unimp
     226:	0000                	unimp
     228:	0000                	unimp
     22a:	0044                	addi	s1,sp,4
     22c:	0000                	unimp
     22e:	0000                	unimp
     230:	0000                	unimp
     232:	0002                	c.slli64	zero
     234:	2072                	fld	ft0,280(sp)
     236:	0044                	addi	s1,sp,4
     238:	0000                	unimp
     23a:	0000                	unimp
     23c:	0000                	unimp
     23e:	0046                	c.slli	zero,0x11
     240:	0000                	unimp
     242:	0000                	unimp
     244:	0000                	unimp
     246:	0002                	c.slli64	zero
     248:	0072                	c.slli	zero,0x1c
     24a:	0046                	c.slli	zero,0x11
     24c:	0000                	unimp
     24e:	0000                	unimp
     250:	0000                	unimp
     252:	0058                	addi	a4,sp,4
     254:	0000                	unimp
     256:	0000                	unimp
     258:	0000                	unimp
     25a:	0002                	c.slli64	zero
     25c:	0078                	addi	a4,sp,12
	...
     276:	0016                	c.slli	zero,0x5
     278:	0000                	unimp
     27a:	0000                	unimp
     27c:	0000                	unimp
     27e:	0001                	nop
     280:	165a                	slli	a2,a2,0x36
     282:	0000                	unimp
     284:	0000                	unimp
     286:	0000                	unimp
     288:	4200                	lw	s0,0(a2)
     28a:	0000                	unimp
     28c:	0000                	unimp
     28e:	0000                	unimp
     290:	0100                	addi	s0,sp,128
     292:	5900                	lw	s0,48(a0)
     294:	0042                	c.slli	zero,0x10
     296:	0000                	unimp
     298:	0000                	unimp
     29a:	0000                	unimp
     29c:	0046                	c.slli	zero,0x11
     29e:	0000                	unimp
     2a0:	0000                	unimp
     2a2:	0000                	unimp
     2a4:	0004                	.2byte	0x4
     2a6:	9f5a01f3          	.4byte	0x9f5a01f3
     2aa:	0046                	c.slli	zero,0x11
     2ac:	0000                	unimp
     2ae:	0000                	unimp
     2b0:	0000                	unimp
     2b2:	0058                	addi	a4,sp,4
     2b4:	0000                	unimp
     2b6:	0000                	unimp
     2b8:	0000                	unimp
     2ba:	0001                	nop
     2bc:	0059                	c.nop	22
	...
     2ca:	0000                	unimp
     2cc:	1600                	addi	s0,sp,800
     2ce:	0000                	unimp
     2d0:	0000                	unimp
     2d2:	0000                	unimp
     2d4:	3700                	fld	fs0,40(a4)
     2d6:	0000                	unimp
     2d8:	0000                	unimp
     2da:	0000                	unimp
     2dc:	0d00                	addi	s0,sp,656
     2de:	7900                	ld	s0,48(a0)
     2e0:	940c                	.2byte	0x940c
     2e2:	3a04                	fld	fs1,48(a2)
     2e4:	0c24                	addi	s1,sp,536
     2e6:	ffff                	.2byte	0xffff
     2e8:	ffff                	.2byte	0xffff
     2ea:	9f1a                	add	t5,t5,t1
	...
     2fc:	0016                	c.slli	zero,0x5
     2fe:	0000                	unimp
     300:	0000                	unimp
     302:	0000                	unimp
     304:	00000037          	lui	zero,0x0
     308:	0000                	unimp
     30a:	0000                	unimp
     30c:	0012                	c.slli	zero,0x4
     30e:	0c79                	addi	s8,s8,30
     310:	0494                	addi	a3,sp,576
     312:	243a                	fld	fs0,392(sp)
     314:	ff0c                	sd	a1,56(a4)
     316:	ffff                	.2byte	0xffff
     318:	1aff                	.2byte	0x1aff
     31a:	8408                	.2byte	0x8408
     31c:	2448                	fld	fa0,136(s0)
     31e:	9f22                	add	t5,t5,s0
	...
     330:	017a                	slli	sp,sp,0x1e
     332:	0000                	unimp
     334:	0000                	unimp
     336:	0000                	unimp
     338:	017c                	addi	a5,sp,140
     33a:	0000                	unimp
     33c:	0000                	unimp
     33e:	0000                	unimp
     340:	0002                	c.slli64	zero
     342:	0072                	c.slli	zero,0x1c
     344:	017c                	addi	a5,sp,140
     346:	0000                	unimp
     348:	0000                	unimp
     34a:	0000                	unimp
     34c:	0180                	addi	s0,sp,192
     34e:	0000                	unimp
     350:	0000                	unimp
     352:	0000                	unimp
     354:	0002                	c.slli64	zero
     356:	1072                	c.slli	zero,0x3c
     358:	0180                	addi	s0,sp,192
     35a:	0000                	unimp
     35c:	0000                	unimp
     35e:	0000                	unimp
     360:	019c                	addi	a5,sp,192
     362:	0000                	unimp
     364:	0000                	unimp
     366:	0000                	unimp
     368:	0002                	c.slli64	zero
     36a:	0078                	addi	a4,sp,12
     36c:	019c                	addi	a5,sp,192
     36e:	0000                	unimp
     370:	0000                	unimp
     372:	0000                	unimp
     374:	019e                	slli	gp,gp,0x7
     376:	0000                	unimp
     378:	0000                	unimp
     37a:	0000                	unimp
     37c:	0002                	c.slli64	zero
     37e:	1072                	c.slli	zero,0x3c
     380:	019e                	slli	gp,gp,0x7
     382:	0000                	unimp
     384:	0000                	unimp
     386:	0000                	unimp
     388:	01a0                	addi	s0,sp,200
     38a:	0000                	unimp
     38c:	0000                	unimp
     38e:	0000                	unimp
     390:	0002                	c.slli64	zero
     392:	0072                	c.slli	zero,0x1c
     394:	01a0                	addi	s0,sp,200
     396:	0000                	unimp
     398:	0000                	unimp
     39a:	0000                	unimp
     39c:	01a4                	addi	s1,sp,200
     39e:	0000                	unimp
     3a0:	0000                	unimp
     3a2:	0000                	unimp
     3a4:	0002                	c.slli64	zero
     3a6:	0078                	addi	a4,sp,12
	...
     3b8:	017a                	slli	sp,sp,0x1e
     3ba:	0000                	unimp
     3bc:	0000                	unimp
     3be:	0000                	unimp
     3c0:	0188                	addi	a0,sp,192
     3c2:	0000                	unimp
     3c4:	0000                	unimp
     3c6:	0000                	unimp
     3c8:	0001                	nop
     3ca:	885a                	mv	a6,s6
     3cc:	0001                	nop
     3ce:	0000                	unimp
     3d0:	0000                	unimp
     3d2:	9800                	.2byte	0x9800
     3d4:	0001                	nop
     3d6:	0000                	unimp
     3d8:	0000                	unimp
     3da:	0300                	addi	s0,sp,384
     3dc:	7a00                	ld	s0,48(a2)
     3de:	9f7f                	.2byte	0x9f7f
     3e0:	0198                	addi	a4,sp,192
     3e2:	0000                	unimp
     3e4:	0000                	unimp
     3e6:	0000                	unimp
     3e8:	01a0                	addi	s0,sp,200
     3ea:	0000                	unimp
     3ec:	0000                	unimp
     3ee:	0000                	unimp
     3f0:	0004                	.2byte	0x4
     3f2:	9f5a01f3          	.4byte	0x9f5a01f3
     3f6:	01a0                	addi	s0,sp,200
     3f8:	0000                	unimp
     3fa:	0000                	unimp
     3fc:	0000                	unimp
     3fe:	01a2                	slli	gp,gp,0x8
     400:	0000                	unimp
     402:	0000                	unimp
     404:	0000                	unimp
     406:	0001                	nop
     408:	a25a                	fsd	fs6,256(sp)
     40a:	0001                	nop
     40c:	0000                	unimp
     40e:	0000                	unimp
     410:	a400                	fsd	fs0,8(s0)
     412:	0001                	nop
     414:	0000                	unimp
     416:	0000                	unimp
     418:	0400                	addi	s0,sp,512
     41a:	f300                	sd	s0,32(a4)
     41c:	5a01                	li	s4,-32
     41e:	009f 0000 0000      	.byte	0x9f, 0x00, 0x00, 0x00, 0x00, 0x00
	...
     42c:	0000                	unimp
     42e:	8000                	.2byte	0x8000
     430:	0001                	nop
     432:	0000                	unimp
     434:	0000                	unimp
     436:	8a00                	.2byte	0x8a00
     438:	0001                	nop
     43a:	0000                	unimp
     43c:	0000                	unimp
     43e:	0200                	addi	s0,sp,256
     440:	3000                	fld	fs0,32(s0)
     442:	8a9f 0001 0000      	.byte	0x9f, 0x8a, 0x01, 0x00, 0x00, 0x00
     448:	0000                	unimp
     44a:	8e00                	.2byte	0x8e00
     44c:	0001                	nop
     44e:	0000                	unimp
     450:	0000                	unimp
     452:	0800                	addi	s0,sp,16
     454:	7f00                	ld	s0,56(a4)
     456:	7a00                	ld	s0,48(a2)
     458:	1c00                	addi	s0,sp,560
     45a:	a09f0123          	sb	s1,-1534(t5)
     45e:	0001                	nop
     460:	0000                	unimp
     462:	0000                	unimp
     464:	a400                	fsd	fs0,8(s0)
     466:	0001                	nop
     468:	0000                	unimp
     46a:	0000                	unimp
     46c:	0200                	addi	s0,sp,256
     46e:	3000                	fld	fs0,32(s0)
     470:	009f 0000 0000      	.byte	0x9f, 0x00, 0x00, 0x00, 0x00, 0x00
	...
     47e:	0000                	unimp
     480:	4800                	lw	s0,16(s0)
     482:	0001                	nop
     484:	0000                	unimp
     486:	0000                	unimp
     488:	4a00                	lw	s0,16(a2)
     48a:	0001                	nop
     48c:	0000                	unimp
     48e:	0000                	unimp
     490:	0200                	addi	s0,sp,256
     492:	7200                	ld	s0,32(a2)
     494:	4a00                	lw	s0,16(a2)
     496:	0001                	nop
     498:	0000                	unimp
     49a:	0000                	unimp
     49c:	4e00                	lw	s0,24(a2)
     49e:	0001                	nop
     4a0:	0000                	unimp
     4a2:	0000                	unimp
     4a4:	0200                	addi	s0,sp,256
     4a6:	7200                	ld	s0,32(a2)
     4a8:	4e10                	lw	a2,24(a2)
     4aa:	0001                	nop
     4ac:	0000                	unimp
     4ae:	0000                	unimp
     4b0:	7600                	ld	s0,40(a2)
     4b2:	0001                	nop
     4b4:	0000                	unimp
     4b6:	0000                	unimp
     4b8:	0200                	addi	s0,sp,256
     4ba:	7800                	ld	s0,48(s0)
     4bc:	7600                	ld	s0,40(a2)
     4be:	0001                	nop
     4c0:	0000                	unimp
     4c2:	0000                	unimp
     4c4:	7800                	ld	s0,48(s0)
     4c6:	0001                	nop
     4c8:	0000                	unimp
     4ca:	0000                	unimp
     4cc:	0200                	addi	s0,sp,256
     4ce:	7200                	ld	s0,32(a2)
     4d0:	7810                	ld	a2,48(s0)
     4d2:	0001                	nop
     4d4:	0000                	unimp
     4d6:	0000                	unimp
     4d8:	7a00                	ld	s0,48(a2)
     4da:	0001                	nop
     4dc:	0000                	unimp
     4de:	0000                	unimp
     4e0:	0200                	addi	s0,sp,256
     4e2:	7200                	ld	s0,32(a2)
	...
     4f4:	4800                	lw	s0,16(s0)
     4f6:	0001                	nop
     4f8:	0000                	unimp
     4fa:	0000                	unimp
     4fc:	5e00                	lw	s0,56(a2)
     4fe:	0001                	nop
     500:	0000                	unimp
     502:	0000                	unimp
     504:	0100                	addi	s0,sp,128
     506:	5a00                	lw	s0,48(a2)
     508:	015e                	slli	sp,sp,0x17
     50a:	0000                	unimp
     50c:	0000                	unimp
     50e:	0000                	unimp
     510:	0174                	addi	a3,sp,140
     512:	0000                	unimp
     514:	0000                	unimp
     516:	0000                	unimp
     518:	0001                	nop
     51a:	005f 0000 0000      	.byte	0x5f, 0x00, 0x00, 0x00, 0x00, 0x00
	...
     528:	0000                	unimp
     52a:	4800                	lw	s0,16(s0)
     52c:	0001                	nop
     52e:	0000                	unimp
     530:	0000                	unimp
     532:	6400                	ld	s0,8(s0)
     534:	0001                	nop
     536:	0000                	unimp
     538:	0000                	unimp
     53a:	0100                	addi	s0,sp,128
     53c:	5b00                	lw	s0,48(a4)
     53e:	0164                	addi	s1,sp,140
     540:	0000                	unimp
     542:	0000                	unimp
     544:	0000                	unimp
     546:	017a                	slli	sp,sp,0x1e
     548:	0000                	unimp
     54a:	0000                	unimp
     54c:	0000                	unimp
     54e:	0001                	nop
     550:	0000005b          	.4byte	0x5b
	...
     560:	4800                	lw	s0,16(s0)
     562:	0001                	nop
     564:	0000                	unimp
     566:	0000                	unimp
     568:	5e00                	lw	s0,56(a2)
     56a:	0001                	nop
     56c:	0000                	unimp
     56e:	0000                	unimp
     570:	0100                	addi	s0,sp,128
     572:	5c00                	lw	s0,56(s0)
     574:	015e                	slli	sp,sp,0x17
     576:	0000                	unimp
     578:	0000                	unimp
     57a:	0000                	unimp
     57c:	0166                	slli	sp,sp,0x19
     57e:	0000                	unimp
     580:	0000                	unimp
     582:	0000                	unimp
     584:	000a                	c.slli	zero,0x2
     586:	007f                	.2byte	0x7f
     588:	7a20                	ld	s0,112(a2)
     58a:	2200                	fld	fs0,0(a2)
     58c:	007c                	addi	a5,sp,12
     58e:	9f22                	add	t5,t5,s0
	...
     5a0:	010c                	addi	a1,sp,128
     5a2:	0000                	unimp
     5a4:	0000                	unimp
     5a6:	0000                	unimp
     5a8:	010e                	slli	sp,sp,0x3
     5aa:	0000                	unimp
     5ac:	0000                	unimp
     5ae:	0000                	unimp
     5b0:	0002                	c.slli64	zero
     5b2:	0072                	c.slli	zero,0x1c
     5b4:	010e                	slli	sp,sp,0x3
     5b6:	0000                	unimp
     5b8:	0000                	unimp
     5ba:	0000                	unimp
     5bc:	0112                	slli	sp,sp,0x4
     5be:	0000                	unimp
     5c0:	0000                	unimp
     5c2:	0000                	unimp
     5c4:	0002                	c.slli64	zero
     5c6:	1072                	c.slli	zero,0x3c
     5c8:	0112                	slli	sp,sp,0x4
     5ca:	0000                	unimp
     5cc:	0000                	unimp
     5ce:	0000                	unimp
     5d0:	0144                	addi	s1,sp,132
     5d2:	0000                	unimp
     5d4:	0000                	unimp
     5d6:	0000                	unimp
     5d8:	0002                	c.slli64	zero
     5da:	0078                	addi	a4,sp,12
     5dc:	0144                	addi	s1,sp,132
     5de:	0000                	unimp
     5e0:	0000                	unimp
     5e2:	0000                	unimp
     5e4:	0146                	slli	sp,sp,0x11
     5e6:	0000                	unimp
     5e8:	0000                	unimp
     5ea:	0000                	unimp
     5ec:	0002                	c.slli64	zero
     5ee:	1072                	c.slli	zero,0x3c
     5f0:	0146                	slli	sp,sp,0x11
     5f2:	0000                	unimp
     5f4:	0000                	unimp
     5f6:	0000                	unimp
     5f8:	0148                	addi	a0,sp,132
     5fa:	0000                	unimp
     5fc:	0000                	unimp
     5fe:	0000                	unimp
     600:	0002                	c.slli64	zero
     602:	0072                	c.slli	zero,0x1c
	...
     614:	010c                	addi	a1,sp,128
     616:	0000                	unimp
     618:	0000                	unimp
     61a:	0000                	unimp
     61c:	0114                	addi	a3,sp,128
     61e:	0000                	unimp
     620:	0000                	unimp
     622:	0000                	unimp
     624:	0001                	nop
     626:	145a                	slli	s0,s0,0x36
     628:	0001                	nop
     62a:	0000                	unimp
     62c:	0000                	unimp
     62e:	2e00                	fld	fs0,24(a2)
     630:	0001                	nop
     632:	0000                	unimp
     634:	0000                	unimp
     636:	0100                	addi	s0,sp,128
     638:	5f00                	lw	s0,56(a4)
     63a:	012e                	slli	sp,sp,0xb
     63c:	0000                	unimp
     63e:	0000                	unimp
     640:	0000                	unimp
     642:	0148                	addi	a0,sp,132
     644:	0000                	unimp
     646:	0000                	unimp
     648:	0000                	unimp
     64a:	0001                	nop
     64c:	005e                	c.slli	zero,0x17
	...
     65a:	0000                	unimp
     65c:	0c00                	addi	s0,sp,528
     65e:	0001                	nop
     660:	0000                	unimp
     662:	0000                	unimp
     664:	1400                	addi	s0,sp,544
     666:	0001                	nop
     668:	0000                	unimp
     66a:	0000                	unimp
     66c:	0100                	addi	s0,sp,128
     66e:	5b00                	lw	s0,48(a4)
     670:	0114                	addi	a3,sp,128
     672:	0000                	unimp
     674:	0000                	unimp
     676:	0000                	unimp
     678:	011c                	addi	a5,sp,128
     67a:	0000                	unimp
     67c:	0000                	unimp
     67e:	0000                	unimp
     680:	000a                	c.slli	zero,0x2
     682:	007f                	.2byte	0x7f
     684:	225b01f3          	.4byte	0x225b01f3
     688:	007a                	c.slli	zero,0x1e
     68a:	9f1c                	.2byte	0x9f1c
     68c:	011c                	addi	a5,sp,128
     68e:	0000                	unimp
     690:	0000                	unimp
     692:	0000                	unimp
     694:	011e                	slli	sp,sp,0x7
     696:	0000                	unimp
     698:	0000                	unimp
     69a:	0000                	unimp
     69c:	000c                	.2byte	0xc
     69e:	007f                	.2byte	0x7f
     6a0:	225b01f3          	.4byte	0x225b01f3
     6a4:	007a                	c.slli	zero,0x1e
     6a6:	231c                	fld	fa5,0(a4)
     6a8:	9f01                	subw	a4,a4,s0
     6aa:	011e                	slli	sp,sp,0x7
     6ac:	0000                	unimp
     6ae:	0000                	unimp
     6b0:	0000                	unimp
     6b2:	012a                	slli	sp,sp,0xa
     6b4:	0000                	unimp
     6b6:	0000                	unimp
     6b8:	0000                	unimp
     6ba:	000a                	c.slli	zero,0x2
     6bc:	007f                	.2byte	0x7f
     6be:	007a                	c.slli	zero,0x1e
     6c0:	f31c                	sd	a5,32(a4)
     6c2:	5b01                	li	s6,-32
     6c4:	9f22                	add	t5,t5,s0
	...
     6d6:	010c                	addi	a1,sp,128
     6d8:	0000                	unimp
     6da:	0000                	unimp
     6dc:	0000                	unimp
     6de:	0114                	addi	a3,sp,128
     6e0:	0000                	unimp
     6e2:	0000                	unimp
     6e4:	0000                	unimp
     6e6:	0001                	nop
     6e8:	145c                	addi	a5,sp,548
     6ea:	0001                	nop
     6ec:	0000                	unimp
     6ee:	0000                	unimp
     6f0:	1800                	addi	s0,sp,48
     6f2:	0001                	nop
     6f4:	0000                	unimp
     6f6:	0000                	unimp
     6f8:	0100                	addi	s0,sp,128
     6fa:	5c00                	lw	s0,56(s0)
     6fc:	012a                	slli	sp,sp,0xa
     6fe:	0000                	unimp
     700:	0000                	unimp
     702:	0000                	unimp
     704:	0134                	addi	a3,sp,136
     706:	0000                	unimp
     708:	0000                	unimp
     70a:	0000                	unimp
     70c:	7e7d0003          	lb	zero,2023(s10)
     710:	009f 0000 0000      	.byte	0x9f, 0x00, 0x00, 0x00, 0x00, 0x00
	...
     71e:	0000                	unimp
     720:	d000                	sw	s0,32(s0)
     722:	0000                	unimp
     724:	0000                	unimp
     726:	0000                	unimp
     728:	d200                	sw	s0,32(a2)
     72a:	0000                	unimp
     72c:	0000                	unimp
     72e:	0000                	unimp
     730:	0200                	addi	s0,sp,256
     732:	7200                	ld	s0,32(a2)
     734:	d200                	sw	s0,32(a2)
     736:	0000                	unimp
     738:	0000                	unimp
     73a:	0000                	unimp
     73c:	d600                	sw	s0,40(a2)
     73e:	0000                	unimp
     740:	0000                	unimp
     742:	0000                	unimp
     744:	0200                	addi	s0,sp,256
     746:	7200                	ld	s0,32(a2)
     748:	d610                	sw	a2,40(a2)
     74a:	0000                	unimp
     74c:	0000                	unimp
     74e:	0000                	unimp
     750:	0400                	addi	s0,sp,512
     752:	0001                	nop
     754:	0000                	unimp
     756:	0000                	unimp
     758:	0200                	addi	s0,sp,256
     75a:	7800                	ld	s0,48(s0)
     75c:	0400                	addi	s0,sp,512
     75e:	0001                	nop
     760:	0000                	unimp
     762:	0000                	unimp
     764:	0600                	addi	s0,sp,768
     766:	0001                	nop
     768:	0000                	unimp
     76a:	0000                	unimp
     76c:	0200                	addi	s0,sp,256
     76e:	7200                	ld	s0,32(a2)
     770:	0610                	addi	a2,sp,768
     772:	0001                	nop
     774:	0000                	unimp
     776:	0000                	unimp
     778:	0800                	addi	s0,sp,16
     77a:	0001                	nop
     77c:	0000                	unimp
     77e:	0000                	unimp
     780:	0200                	addi	s0,sp,256
     782:	7200                	ld	s0,32(a2)
     784:	0800                	addi	s0,sp,16
     786:	0001                	nop
     788:	0000                	unimp
     78a:	0000                	unimp
     78c:	0c00                	addi	s0,sp,528
     78e:	0001                	nop
     790:	0000                	unimp
     792:	0000                	unimp
     794:	0200                	addi	s0,sp,256
     796:	7800                	ld	s0,48(s0)
	...
     7a8:	d000                	sw	s0,32(s0)
     7aa:	0000                	unimp
     7ac:	0000                	unimp
     7ae:	0000                	unimp
     7b0:	ea00                	sd	s0,16(a2)
     7b2:	0000                	unimp
     7b4:	0000                	unimp
     7b6:	0000                	unimp
     7b8:	0100                	addi	s0,sp,128
     7ba:	5a00                	lw	s0,48(a2)
     7bc:	00ea                	slli	ra,ra,0x1a
     7be:	0000                	unimp
     7c0:	0000                	unimp
     7c2:	0000                	unimp
     7c4:	00f0                	addi	a2,sp,76
     7c6:	0000                	unimp
     7c8:	0000                	unimp
     7ca:	0000                	unimp
     7cc:	0001                	nop
     7ce:	f25a                	sd	s6,288(sp)
     7d0:	0000                	unimp
     7d2:	0000                	unimp
     7d4:	0000                	unimp
     7d6:	f400                	sd	s0,40(s0)
     7d8:	0000                	unimp
     7da:	0000                	unimp
     7dc:	0000                	unimp
     7de:	0100                	addi	s0,sp,128
     7e0:	5a00                	lw	s0,48(a2)
     7e2:	00f4                	addi	a3,sp,76
     7e4:	0000                	unimp
     7e6:	0000                	unimp
     7e8:	0000                	unimp
     7ea:	00f6                	slli	ra,ra,0x1d
     7ec:	0000                	unimp
     7ee:	0000                	unimp
     7f0:	0000                	unimp
     7f2:	0004                	.2byte	0x4
     7f4:	9f5a01f3          	.4byte	0x9f5a01f3
     7f8:	00f6                	slli	ra,ra,0x1d
     7fa:	0000                	unimp
     7fc:	0000                	unimp
     7fe:	0000                	unimp
     800:	00fc                	addi	a5,sp,76
     802:	0000                	unimp
     804:	0000                	unimp
     806:	0000                	unimp
     808:	0001                	nop
     80a:	085a                	slli	a6,a6,0x16
     80c:	0001                	nop
     80e:	0000                	unimp
     810:	0000                	unimp
     812:	0a00                	addi	s0,sp,272
     814:	0001                	nop
     816:	0000                	unimp
     818:	0000                	unimp
     81a:	0100                	addi	s0,sp,128
     81c:	5a00                	lw	s0,48(a2)
	...
     82e:	00d0                	addi	a2,sp,68
     830:	0000                	unimp
     832:	0000                	unimp
     834:	0000                	unimp
     836:	00ec                	addi	a1,sp,76
     838:	0000                	unimp
     83a:	0000                	unimp
     83c:	0000                	unimp
     83e:	0001                	nop
     840:	0000ec5b          	.4byte	0xec5b
     844:	0000                	unimp
     846:	0000                	unimp
     848:	0c00                	addi	s0,sp,528
     84a:	0001                	nop
     84c:	0000                	unimp
     84e:	0000                	unimp
     850:	0100                	addi	s0,sp,128
     852:	5b00                	lw	s0,48(a4)
	...
     864:	00d0                	addi	a2,sp,68
     866:	0000                	unimp
     868:	0000                	unimp
     86a:	0000                	unimp
     86c:	00d8                	addi	a4,sp,68
     86e:	0000                	unimp
     870:	0000                	unimp
     872:	0000                	unimp
     874:	0001                	nop
     876:	d85c                	sw	a5,52(s0)
     878:	0000                	unimp
     87a:	0000                	unimp
     87c:	0000                	unimp
     87e:	e800                	sd	s0,16(s0)
     880:	0000                	unimp
     882:	0000                	unimp
     884:	0000                	unimp
     886:	0100                	addi	s0,sp,128
     888:	5c00                	lw	s0,56(s0)
     88a:	00f2                	slli	ra,ra,0x1c
     88c:	0000                	unimp
     88e:	0000                	unimp
     890:	0000                	unimp
     892:	0102                	c.slli64	sp
     894:	0000                	unimp
     896:	0000                	unimp
     898:	0000                	unimp
     89a:	0001                	nop
     89c:	085c                	addi	a5,sp,20
     89e:	0001                	nop
     8a0:	0000                	unimp
     8a2:	0000                	unimp
     8a4:	0c00                	addi	s0,sp,528
     8a6:	0001                	nop
     8a8:	0000                	unimp
     8aa:	0000                	unimp
     8ac:	0100                	addi	s0,sp,128
     8ae:	5c00                	lw	s0,56(s0)
	...
     8c0:	00b8                	addi	a4,sp,72
     8c2:	0000                	unimp
     8c4:	0000                	unimp
     8c6:	0000                	unimp
     8c8:	00ba                	slli	ra,ra,0xe
     8ca:	0000                	unimp
     8cc:	0000                	unimp
     8ce:	0000                	unimp
     8d0:	0002                	c.slli64	zero
     8d2:	0072                	c.slli	zero,0x1c
     8d4:	00ba                	slli	ra,ra,0xe
     8d6:	0000                	unimp
     8d8:	0000                	unimp
     8da:	0000                	unimp
     8dc:	00c0                	addi	s0,sp,68
     8de:	0000                	unimp
     8e0:	0000                	unimp
     8e2:	0000                	unimp
     8e4:	0002                	c.slli64	zero
     8e6:	1072                	c.slli	zero,0x3c
     8e8:	00c0                	addi	s0,sp,68
     8ea:	0000                	unimp
     8ec:	0000                	unimp
     8ee:	0000                	unimp
     8f0:	00cc                	addi	a1,sp,68
     8f2:	0000                	unimp
     8f4:	0000                	unimp
     8f6:	0000                	unimp
     8f8:	0002                	c.slli64	zero
     8fa:	0078                	addi	a4,sp,12
     8fc:	00cc                	addi	a1,sp,68
     8fe:	0000                	unimp
     900:	0000                	unimp
     902:	0000                	unimp
     904:	00ce                	slli	ra,ra,0x13
     906:	0000                	unimp
     908:	0000                	unimp
     90a:	0000                	unimp
     90c:	0002                	c.slli64	zero
     90e:	1072                	c.slli	zero,0x3c
     910:	00ce                	slli	ra,ra,0x13
     912:	0000                	unimp
     914:	0000                	unimp
     916:	0000                	unimp
     918:	00d0                	addi	a2,sp,68
     91a:	0000                	unimp
     91c:	0000                	unimp
     91e:	0000                	unimp
     920:	0002                	c.slli64	zero
     922:	0072                	c.slli	zero,0x1c
	...
     934:	00b8                	addi	a4,sp,72
     936:	0000                	unimp
     938:	0000                	unimp
     93a:	0000                	unimp
     93c:	000000c7          	fmsub.s	ft1,ft0,ft0,ft0,rne
     940:	0000                	unimp
     942:	0000                	unimp
     944:	0001                	nop
     946:	c75a                	sw	s6,140(sp)
     948:	0000                	unimp
     94a:	0000                	unimp
     94c:	0000                	unimp
     94e:	d000                	sw	s0,32(s0)
     950:	0000                	unimp
     952:	0000                	unimp
     954:	0000                	unimp
     956:	0400                	addi	s0,sp,512
     958:	f300                	sd	s0,32(a4)
     95a:	5a01                	li	s4,-32
     95c:	009f 0000 0000      	.byte	0x9f, 0x00, 0x00, 0x00, 0x00, 0x00
	...
     96a:	0000                	unimp
     96c:	b800                	fsd	fs0,48(s0)
     96e:	0000                	unimp
     970:	0000                	unimp
     972:	0000                	unimp
     974:	c700                	sw	s0,8(a4)
     976:	0000                	unimp
     978:	0000                	unimp
     97a:	0000                	unimp
     97c:	0100                	addi	s0,sp,128
     97e:	5b00                	lw	s0,48(a4)
     980:	000000c7          	fmsub.s	ft1,ft0,ft0,ft0,rne
     984:	0000                	unimp
     986:	0000                	unimp
     988:	00d0                	addi	a2,sp,68
     98a:	0000                	unimp
     98c:	0000                	unimp
     98e:	0000                	unimp
     990:	0004                	.2byte	0x4
     992:	9f5b01f3          	.4byte	0x9f5b01f3
	...
     9a6:	00b8                	addi	a4,sp,72
     9a8:	0000                	unimp
     9aa:	0000                	unimp
     9ac:	0000                	unimp
     9ae:	000000c7          	fmsub.s	ft1,ft0,ft0,ft0,rne
     9b2:	0000                	unimp
     9b4:	0000                	unimp
     9b6:	0001                	nop
     9b8:	c75c                	sw	a5,12(a4)
     9ba:	0000                	unimp
     9bc:	0000                	unimp
     9be:	0000                	unimp
     9c0:	d000                	sw	s0,32(s0)
     9c2:	0000                	unimp
     9c4:	0000                	unimp
     9c6:	0000                	unimp
     9c8:	0400                	addi	s0,sp,512
     9ca:	f300                	sd	s0,32(a4)
     9cc:	5c01                	li	s8,-32
     9ce:	009f 0000 0000      	.byte	0x9f, 0x00, 0x00, 0x00, 0x00, 0x00
	...
     9dc:	0000                	unimp
     9de:	5c00                	lw	s0,56(s0)
     9e0:	0000                	unimp
     9e2:	0000                	unimp
     9e4:	0000                	unimp
     9e6:	5e00                	lw	s0,56(a2)
     9e8:	0000                	unimp
     9ea:	0000                	unimp
     9ec:	0000                	unimp
     9ee:	0200                	addi	s0,sp,256
     9f0:	7200                	ld	s0,32(a2)
     9f2:	5e00                	lw	s0,56(a2)
     9f4:	0000                	unimp
     9f6:	0000                	unimp
     9f8:	0000                	unimp
     9fa:	6200                	ld	s0,0(a2)
     9fc:	0000                	unimp
     9fe:	0000                	unimp
     a00:	0000                	unimp
     a02:	0200                	addi	s0,sp,256
     a04:	7200                	ld	s0,32(a2)
     a06:	6210                	ld	a2,0(a2)
     a08:	0000                	unimp
     a0a:	0000                	unimp
     a0c:	0000                	unimp
     a0e:	8400                	.2byte	0x8400
     a10:	0000                	unimp
     a12:	0000                	unimp
     a14:	0000                	unimp
     a16:	0200                	addi	s0,sp,256
     a18:	7800                	ld	s0,48(s0)
     a1a:	8400                	.2byte	0x8400
     a1c:	0000                	unimp
     a1e:	0000                	unimp
     a20:	0000                	unimp
     a22:	8600                	.2byte	0x8600
     a24:	0000                	unimp
     a26:	0000                	unimp
     a28:	0000                	unimp
     a2a:	0200                	addi	s0,sp,256
     a2c:	7200                	ld	s0,32(a2)
     a2e:	8610                	.2byte	0x8610
     a30:	0000                	unimp
     a32:	0000                	unimp
     a34:	0000                	unimp
     a36:	8800                	.2byte	0x8800
     a38:	0000                	unimp
     a3a:	0000                	unimp
     a3c:	0000                	unimp
     a3e:	0200                	addi	s0,sp,256
     a40:	7200                	ld	s0,32(a2)
     a42:	8800                	.2byte	0x8800
     a44:	0000                	unimp
     a46:	0000                	unimp
     a48:	0000                	unimp
     a4a:	b800                	fsd	fs0,48(s0)
     a4c:	0000                	unimp
     a4e:	0000                	unimp
     a50:	0000                	unimp
     a52:	0200                	addi	s0,sp,256
     a54:	7800                	ld	s0,48(s0)
	...
     a66:	5c00                	lw	s0,56(s0)
     a68:	0000                	unimp
     a6a:	0000                	unimp
     a6c:	0000                	unimp
     a6e:	7200                	ld	s0,32(a2)
     a70:	0000                	unimp
     a72:	0000                	unimp
     a74:	0000                	unimp
     a76:	0100                	addi	s0,sp,128
     a78:	5b00                	lw	s0,48(a4)
     a7a:	0072                	c.slli	zero,0x1c
     a7c:	0000                	unimp
     a7e:	0000                	unimp
     a80:	0000                	unimp
     a82:	0088                	addi	a0,sp,64
     a84:	0000                	unimp
     a86:	0000                	unimp
     a88:	0000                	unimp
     a8a:	0004                	.2byte	0x4
     a8c:	9f5b01f3          	.4byte	0x9f5b01f3
     a90:	0088                	addi	a0,sp,64
     a92:	0000                	unimp
     a94:	0000                	unimp
     a96:	0000                	unimp
     a98:	00b8                	addi	a4,sp,72
     a9a:	0000                	unimp
     a9c:	0000                	unimp
     a9e:	0000                	unimp
     aa0:	0001                	nop
     aa2:	0000005b          	.4byte	0x5b
	...
     ab2:	5c00                	lw	s0,56(s0)
     ab4:	0000                	unimp
     ab6:	0000                	unimp
     ab8:	0000                	unimp
     aba:	6800                	ld	s0,16(s0)
     abc:	0000                	unimp
     abe:	0000                	unimp
     ac0:	0000                	unimp
     ac2:	0100                	addi	s0,sp,128
     ac4:	5c00                	lw	s0,56(s0)
     ac6:	0068                	addi	a0,sp,12
     ac8:	0000                	unimp
     aca:	0000                	unimp
     acc:	0000                	unimp
     ace:	006a                	c.slli	zero,0x1a
     ad0:	0000                	unimp
     ad2:	0000                	unimp
     ad4:	0000                	unimp
     ad6:	7f7c0003          	lb	zero,2039(s8)
     ada:	889f 0000 0000      	.byte	0x9f, 0x88, 0x00, 0x00, 0x00, 0x00
     ae0:	0000                	unimp
     ae2:	9800                	.2byte	0x9800
     ae4:	0000                	unimp
     ae6:	0000                	unimp
     ae8:	0000                	unimp
     aea:	0100                	addi	s0,sp,128
     aec:	5c00                	lw	s0,56(s0)
     aee:	0098                	addi	a4,sp,64
     af0:	0000                	unimp
     af2:	0000                	unimp
     af4:	0000                	unimp
     af6:	00a6                	slli	ra,ra,0x9
     af8:	0000                	unimp
     afa:	0000                	unimp
     afc:	0000                	unimp
     afe:	7f7c0003          	lb	zero,2039(s8)
     b02:	009f 0000 0000      	.byte	0x9f, 0x00, 0x00, 0x00, 0x00, 0x00
	...
     b10:	0000                	unimp
     b12:	6400                	ld	s0,8(s0)
     b14:	0000                	unimp
     b16:	0000                	unimp
     b18:	0000                	unimp
     b1a:	8200                	.2byte	0x8200
     b1c:	0000                	unimp
     b1e:	0000                	unimp
     b20:	0000                	unimp
     b22:	0100                	addi	s0,sp,128
     b24:	5b00                	lw	s0,48(a4)
     b26:	0088                	addi	a0,sp,64
     b28:	0000                	unimp
     b2a:	0000                	unimp
     b2c:	0000                	unimp
     b2e:	0096                	slli	ra,ra,0x5
     b30:	0000                	unimp
     b32:	0000                	unimp
     b34:	0000                	unimp
     b36:	0001                	nop
     b38:	0000965b          	.4byte	0x965b
     b3c:	0000                	unimp
     b3e:	0000                	unimp
     b40:	b800                	fsd	fs0,48(s0)
     b42:	0000                	unimp
     b44:	0000                	unimp
     b46:	0000                	unimp
     b48:	0100                	addi	s0,sp,128
     b4a:	5e00                	lw	s0,56(a2)
	...
     b5c:	0064                	addi	s1,sp,12
     b5e:	0000                	unimp
     b60:	0000                	unimp
     b62:	0000                	unimp
     b64:	0072                	c.slli	zero,0x1c
     b66:	0000                	unimp
     b68:	0000                	unimp
     b6a:	0000                	unimp
     b6c:	0001                	nop
     b6e:	725a                	ld	tp,432(sp)
     b70:	0000                	unimp
     b72:	0000                	unimp
     b74:	0000                	unimp
     b76:	8200                	.2byte	0x8200
     b78:	0000                	unimp
     b7a:	0000                	unimp
     b7c:	0000                	unimp
     b7e:	0100                	addi	s0,sp,128
     b80:	5e00                	lw	s0,56(a2)
     b82:	0088                	addi	a0,sp,64
     b84:	0000                	unimp
     b86:	0000                	unimp
     b88:	0000                	unimp
     b8a:	0098                	addi	a4,sp,64
     b8c:	0000                	unimp
     b8e:	0000                	unimp
     b90:	0000                	unimp
     b92:	0001                	nop
     b94:	985a                	add	a6,a6,s6
     b96:	0000                	unimp
     b98:	0000                	unimp
     b9a:	0000                	unimp
     b9c:	b800                	fsd	fs0,48(s0)
     b9e:	0000                	unimp
     ba0:	0000                	unimp
     ba2:	0000                	unimp
     ba4:	0100                	addi	s0,sp,128
     ba6:	5d00                	lw	s0,56(a0)
	...
     bb8:	0022                	c.slli	zero,0x8
     bba:	0000                	unimp
     bbc:	0000                	unimp
     bbe:	0000                	unimp
     bc0:	0024                	addi	s1,sp,8
     bc2:	0000                	unimp
     bc4:	0000                	unimp
     bc6:	0000                	unimp
     bc8:	0002                	c.slli64	zero
     bca:	0072                	c.slli	zero,0x1c
     bcc:	0024                	addi	s1,sp,8
     bce:	0000                	unimp
     bd0:	0000                	unimp
     bd2:	0000                	unimp
     bd4:	0028                	addi	a0,sp,8
     bd6:	0000                	unimp
     bd8:	0000                	unimp
     bda:	0000                	unimp
     bdc:	0002                	c.slli64	zero
     bde:	1072                	c.slli	zero,0x3c
     be0:	0028                	addi	a0,sp,8
     be2:	0000                	unimp
     be4:	0000                	unimp
     be6:	0000                	unimp
     be8:	0054                	addi	a3,sp,4
     bea:	0000                	unimp
     bec:	0000                	unimp
     bee:	0000                	unimp
     bf0:	0002                	c.slli64	zero
     bf2:	0078                	addi	a4,sp,12
     bf4:	0054                	addi	a3,sp,4
     bf6:	0000                	unimp
     bf8:	0000                	unimp
     bfa:	0000                	unimp
     bfc:	0056                	c.slli	zero,0x15
     bfe:	0000                	unimp
     c00:	0000                	unimp
     c02:	0000                	unimp
     c04:	0002                	c.slli64	zero
     c06:	1072                	c.slli	zero,0x3c
     c08:	0056                	c.slli	zero,0x15
     c0a:	0000                	unimp
     c0c:	0000                	unimp
     c0e:	0000                	unimp
     c10:	0058                	addi	a4,sp,4
     c12:	0000                	unimp
     c14:	0000                	unimp
     c16:	0000                	unimp
     c18:	0002                	c.slli64	zero
     c1a:	0072                	c.slli	zero,0x1c
     c1c:	0058                	addi	a4,sp,4
     c1e:	0000                	unimp
     c20:	0000                	unimp
     c22:	0000                	unimp
     c24:	005c                	addi	a5,sp,4
     c26:	0000                	unimp
     c28:	0000                	unimp
     c2a:	0000                	unimp
     c2c:	0002                	c.slli64	zero
     c2e:	0078                	addi	a4,sp,12
	...
     c40:	0022                	c.slli	zero,0x8
     c42:	0000                	unimp
     c44:	0000                	unimp
     c46:	0000                	unimp
     c48:	0036                	c.slli	zero,0xd
     c4a:	0000                	unimp
     c4c:	0000                	unimp
     c4e:	0000                	unimp
     c50:	0001                	nop
     c52:	365a                	fld	fa2,432(sp)
     c54:	0000                	unimp
     c56:	0000                	unimp
     c58:	0000                	unimp
     c5a:	5800                	lw	s0,48(s0)
     c5c:	0000                	unimp
     c5e:	0000                	unimp
     c60:	0000                	unimp
     c62:	0400                	addi	s0,sp,512
     c64:	f300                	sd	s0,32(a4)
     c66:	5a01                	li	s4,-32
     c68:	589f 0000 0000      	.byte	0x9f, 0x58, 0x00, 0x00, 0x00, 0x00
     c6e:	0000                	unimp
     c70:	5a00                	lw	s0,48(a2)
     c72:	0000                	unimp
     c74:	0000                	unimp
     c76:	0000                	unimp
     c78:	0100                	addi	s0,sp,128
     c7a:	5a00                	lw	s0,48(a2)
     c7c:	005a                	c.slli	zero,0x16
     c7e:	0000                	unimp
     c80:	0000                	unimp
     c82:	0000                	unimp
     c84:	005c                	addi	a5,sp,4
     c86:	0000                	unimp
     c88:	0000                	unimp
     c8a:	0000                	unimp
     c8c:	0004                	.2byte	0x4
     c8e:	9f5a01f3          	.4byte	0x9f5a01f3
	...
     ca2:	0022                	c.slli	zero,0x8
     ca4:	0000                	unimp
     ca6:	0000                	unimp
     ca8:	0000                	unimp
     caa:	0036                	c.slli	zero,0xd
     cac:	0000                	unimp
     cae:	0000                	unimp
     cb0:	0000                	unimp
     cb2:	0001                	nop
     cb4:	0000365b          	.4byte	0x365b
     cb8:	0000                	unimp
     cba:	0000                	unimp
     cbc:	5800                	lw	s0,48(s0)
     cbe:	0000                	unimp
     cc0:	0000                	unimp
     cc2:	0000                	unimp
     cc4:	0400                	addi	s0,sp,512
     cc6:	f300                	sd	s0,32(a4)
     cc8:	5b01                	li	s6,-32
     cca:	589f 0000 0000      	.byte	0x9f, 0x58, 0x00, 0x00, 0x00, 0x00
     cd0:	0000                	unimp
     cd2:	5c00                	lw	s0,56(s0)
     cd4:	0000                	unimp
     cd6:	0000                	unimp
     cd8:	0000                	unimp
     cda:	0100                	addi	s0,sp,128
     cdc:	5b00                	lw	s0,48(a4)
	...
     cee:	0022                	c.slli	zero,0x8
     cf0:	0000                	unimp
     cf2:	0000                	unimp
     cf4:	0000                	unimp
     cf6:	0028                	addi	a0,sp,8
     cf8:	0000                	unimp
     cfa:	0000                	unimp
     cfc:	0000                	unimp
     cfe:	0001                	nop
     d00:	285c                	fld	fa5,144(s0)
     d02:	0000                	unimp
     d04:	0000                	unimp
     d06:	0000                	unimp
     d08:	2e00                	fld	fs0,24(a2)
     d0a:	0000                	unimp
     d0c:	0000                	unimp
     d0e:	0000                	unimp
     d10:	0300                	addi	s0,sp,384
     d12:	7c00                	ld	s0,56(s0)
     d14:	9f7f                	.2byte	0x9f7f
     d16:	002e                	c.slli	zero,0xb
     d18:	0000                	unimp
     d1a:	0000                	unimp
     d1c:	0000                	unimp
     d1e:	0030                	addi	a2,sp,8
     d20:	0000                	unimp
     d22:	0000                	unimp
     d24:	0000                	unimp
     d26:	0001                	nop
     d28:	305d                	.2byte	0x305d
     d2a:	0000                	unimp
     d2c:	0000                	unimp
     d2e:	0000                	unimp
     d30:	5200                	lw	s0,32(a2)
     d32:	0000                	unimp
     d34:	0000                	unimp
     d36:	0000                	unimp
     d38:	0300                	addi	s0,sp,384
     d3a:	7c00                	ld	s0,56(s0)
     d3c:	9f7f                	.2byte	0x9f7f
     d3e:	0058                	addi	a4,sp,4
     d40:	0000                	unimp
     d42:	0000                	unimp
     d44:	0000                	unimp
     d46:	005c                	addi	a5,sp,4
     d48:	0000                	unimp
     d4a:	0000                	unimp
     d4c:	0000                	unimp
     d4e:	7f7c0003          	lb	zero,2039(s8)
     d52:	009f 0000 0000      	.byte	0x9f, 0x00, 0x00, 0x00, 0x00, 0x00
	...
     d60:	0000                	unimp
     d62:	2800                	fld	fs0,16(s0)
     d64:	0000                	unimp
     d66:	0000                	unimp
     d68:	0000                	unimp
     d6a:	4c00                	lw	s0,24(s0)
     d6c:	0000                	unimp
     d6e:	0000                	unimp
     d70:	0000                	unimp
     d72:	0100                	addi	s0,sp,128
     d74:	5a00                	lw	s0,48(a2)
     d76:	004e                	c.slli	zero,0x13
     d78:	0000                	unimp
     d7a:	0000                	unimp
     d7c:	0000                	unimp
     d7e:	0052                	c.slli	zero,0x14
     d80:	0000                	unimp
     d82:	0000                	unimp
     d84:	0000                	unimp
     d86:	0001                	nop
     d88:	585a                	lw	a6,180(sp)
     d8a:	0000                	unimp
     d8c:	0000                	unimp
     d8e:	0000                	unimp
     d90:	5a00                	lw	s0,48(a2)
     d92:	0000                	unimp
     d94:	0000                	unimp
     d96:	0000                	unimp
     d98:	0100                	addi	s0,sp,128
     d9a:	5a00                	lw	s0,48(a2)
     d9c:	005a                	c.slli	zero,0x16
     d9e:	0000                	unimp
     da0:	0000                	unimp
     da2:	0000                	unimp
     da4:	005c                	addi	a5,sp,4
     da6:	0000                	unimp
     da8:	0000                	unimp
     daa:	0000                	unimp
     dac:	0004                	.2byte	0x4
     dae:	9f5a01f3          	.4byte	0x9f5a01f3
	...
     dca:	0002                	c.slli64	zero
     dcc:	0000                	unimp
     dce:	0000                	unimp
     dd0:	0000                	unimp
     dd2:	0002                	c.slli64	zero
     dd4:	0072                	c.slli	zero,0x1c
     dd6:	0002                	c.slli64	zero
     dd8:	0000                	unimp
     dda:	0000                	unimp
     ddc:	0000                	unimp
     dde:	0006                	c.slli	zero,0x1
     de0:	0000                	unimp
     de2:	0000                	unimp
     de4:	0000                	unimp
     de6:	0002                	c.slli64	zero
     de8:	1072                	c.slli	zero,0x3c
     dea:	0006                	c.slli	zero,0x1
     dec:	0000                	unimp
     dee:	0000                	unimp
     df0:	0000                	unimp
     df2:	001e                	c.slli	zero,0x7
     df4:	0000                	unimp
     df6:	0000                	unimp
     df8:	0000                	unimp
     dfa:	0002                	c.slli64	zero
     dfc:	0078                	addi	a4,sp,12
     dfe:	001e                	c.slli	zero,0x7
     e00:	0000                	unimp
     e02:	0000                	unimp
     e04:	0000                	unimp
     e06:	0020                	addi	s0,sp,8
     e08:	0000                	unimp
     e0a:	0000                	unimp
     e0c:	0000                	unimp
     e0e:	0002                	c.slli64	zero
     e10:	1072                	c.slli	zero,0x3c
     e12:	0020                	addi	s0,sp,8
     e14:	0000                	unimp
     e16:	0000                	unimp
     e18:	0000                	unimp
     e1a:	0022                	c.slli	zero,0x8
     e1c:	0000                	unimp
     e1e:	0000                	unimp
     e20:	0000                	unimp
     e22:	0002                	c.slli64	zero
     e24:	0072                	c.slli	zero,0x1c
	...
     e3e:	000c                	.2byte	0xc
     e40:	0000                	unimp
     e42:	0000                	unimp
     e44:	0000                	unimp
     e46:	0001                	nop
     e48:	0c5c                	addi	a5,sp,532
     e4a:	0000                	unimp
     e4c:	0000                	unimp
     e4e:	0000                	unimp
     e50:	2200                	fld	fs0,0(a2)
     e52:	0000                	unimp
     e54:	0000                	unimp
     e56:	0000                	unimp
     e58:	0400                	addi	s0,sp,512
     e5a:	f300                	sd	s0,32(a4)
     e5c:	5c01                	li	s8,-32
     e5e:	009f 0000 0000      	.byte	0x9f, 0x00, 0x00, 0x00, 0x00, 0x00
	...
     e6c:	0000                	unimp
     e6e:	0600                	addi	s0,sp,768
     e70:	0000                	unimp
     e72:	0000                	unimp
     e74:	0000                	unimp
     e76:	1200                	addi	s0,sp,288
     e78:	0000                	unimp
     e7a:	0000                	unimp
     e7c:	0000                	unimp
     e7e:	0200                	addi	s0,sp,256
     e80:	3000                	fld	fs0,32(s0)
     e82:	129f 0000 0000      	.byte	0x9f, 0x12, 0x00, 0x00, 0x00, 0x00
     e88:	0000                	unimp
     e8a:	1600                	addi	s0,sp,800
     e8c:	0000                	unimp
     e8e:	0000                	unimp
     e90:	0000                	unimp
     e92:	0600                	addi	s0,sp,768
     e94:	7f00                	ld	s0,56(a4)
     e96:	7a00                	ld	s0,48(a2)
     e98:	1c00                	addi	s0,sp,560
     e9a:	169f 0000 0000      	.byte	0x9f, 0x16, 0x00, 0x00, 0x00, 0x00
     ea0:	0000                	unimp
     ea2:	1800                	addi	s0,sp,48
     ea4:	0000                	unimp
     ea6:	0000                	unimp
     ea8:	0000                	unimp
     eaa:	0800                	addi	s0,sp,16
     eac:	7f00                	ld	s0,56(a4)
     eae:	7a00                	ld	s0,48(a2)
     eb0:	1c00                	addi	s0,sp,560
     eb2:	009f0123          	sb	s1,2(t5)
	...
     ec2:	0000                	unimp
     ec4:	1600                	addi	s0,sp,800
     ec6:	0000                	unimp
     ec8:	0000                	unimp
     eca:	0000                	unimp
     ecc:	1800                	addi	s0,sp,48
     ece:	0000                	unimp
     ed0:	0000                	unimp
     ed2:	0000                	unimp
     ed4:	0200                	addi	s0,sp,256
     ed6:	7200                	ld	s0,32(a2)
     ed8:	1800                	addi	s0,sp,48
     eda:	0000                	unimp
     edc:	0000                	unimp
     ede:	0000                	unimp
     ee0:	1c00                	addi	s0,sp,560
     ee2:	0000                	unimp
     ee4:	0000                	unimp
     ee6:	0000                	unimp
     ee8:	0200                	addi	s0,sp,256
     eea:	7200                	ld	s0,32(a2)
     eec:	1c10                	addi	a2,sp,560
     eee:	0000                	unimp
     ef0:	0000                	unimp
     ef2:	0000                	unimp
     ef4:	2000                	fld	fs0,0(s0)
     ef6:	0000                	unimp
     ef8:	0000                	unimp
     efa:	0000                	unimp
     efc:	0200                	addi	s0,sp,256
     efe:	7800                	ld	s0,48(s0)
     f00:	2000                	fld	fs0,0(s0)
     f02:	0000                	unimp
     f04:	0000                	unimp
     f06:	0000                	unimp
     f08:	2200                	fld	fs0,0(a2)
     f0a:	0000                	unimp
     f0c:	0000                	unimp
     f0e:	0000                	unimp
     f10:	0200                	addi	s0,sp,256
     f12:	7200                	ld	s0,32(a2)
     f14:	2210                	fld	fa2,0(a2)
     f16:	0000                	unimp
     f18:	0000                	unimp
     f1a:	0000                	unimp
     f1c:	2400                	fld	fs0,8(s0)
     f1e:	0000                	unimp
     f20:	0000                	unimp
     f22:	0000                	unimp
     f24:	0200                	addi	s0,sp,256
     f26:	7200                	ld	s0,32(a2)
	...
     f38:	0800                	addi	s0,sp,16
     f3a:	0000                	unimp
     f3c:	0000                	unimp
     f3e:	0000                	unimp
     f40:	0a00                	addi	s0,sp,272
     f42:	0000                	unimp
     f44:	0000                	unimp
     f46:	0000                	unimp
     f48:	0200                	addi	s0,sp,256
     f4a:	7200                	ld	s0,32(a2)
     f4c:	0a00                	addi	s0,sp,272
     f4e:	0000                	unimp
     f50:	0000                	unimp
     f52:	0000                	unimp
     f54:	0e00                	addi	s0,sp,784
     f56:	0000                	unimp
     f58:	0000                	unimp
     f5a:	0000                	unimp
     f5c:	0200                	addi	s0,sp,256
     f5e:	7200                	ld	s0,32(a2)
     f60:	0e10                	addi	a2,sp,784
     f62:	0000                	unimp
     f64:	0000                	unimp
     f66:	0000                	unimp
     f68:	1200                	addi	s0,sp,288
     f6a:	0000                	unimp
     f6c:	0000                	unimp
     f6e:	0000                	unimp
     f70:	0200                	addi	s0,sp,256
     f72:	7800                	ld	s0,48(s0)
     f74:	1200                	addi	s0,sp,288
     f76:	0000                	unimp
     f78:	0000                	unimp
     f7a:	0000                	unimp
     f7c:	1400                	addi	s0,sp,544
     f7e:	0000                	unimp
     f80:	0000                	unimp
     f82:	0000                	unimp
     f84:	0200                	addi	s0,sp,256
     f86:	7200                	ld	s0,32(a2)
     f88:	1410                	addi	a2,sp,544
     f8a:	0000                	unimp
     f8c:	0000                	unimp
     f8e:	0000                	unimp
     f90:	1600                	addi	s0,sp,800
     f92:	0000                	unimp
     f94:	0000                	unimp
     f96:	0000                	unimp
     f98:	0200                	addi	s0,sp,256
     f9a:	7200                	ld	s0,32(a2)
	...
     fb4:	0200                	addi	s0,sp,256
     fb6:	0000                	unimp
     fb8:	0000                	unimp
     fba:	0000                	unimp
     fbc:	0200                	addi	s0,sp,256
     fbe:	7200                	ld	s0,32(a2)
     fc0:	0200                	addi	s0,sp,256
     fc2:	0000                	unimp
     fc4:	0000                	unimp
     fc6:	0000                	unimp
     fc8:	0600                	addi	s0,sp,768
     fca:	0000                	unimp
     fcc:	0000                	unimp
     fce:	0000                	unimp
     fd0:	0200                	addi	s0,sp,256
     fd2:	7200                	ld	s0,32(a2)
     fd4:	0610                	addi	a2,sp,768
     fd6:	0000                	unimp
     fd8:	0000                	unimp
     fda:	0000                	unimp
     fdc:	0800                	addi	s0,sp,16
     fde:	0000                	unimp
     fe0:	0000                	unimp
     fe2:	0000                	unimp
     fe4:	0200                	addi	s0,sp,256
     fe6:	7800                	ld	s0,48(s0)
	...
    1000:	0200                	addi	s0,sp,256
    1002:	0000                	unimp
    1004:	0000                	unimp
    1006:	0000                	unimp
    1008:	0200                	addi	s0,sp,256
    100a:	7200                	ld	s0,32(a2)
    100c:	0200                	addi	s0,sp,256
    100e:	0000                	unimp
    1010:	0000                	unimp
    1012:	0000                	unimp
    1014:	0800                	addi	s0,sp,16
    1016:	0000                	unimp
    1018:	0000                	unimp
    101a:	0000                	unimp
    101c:	0300                	addi	s0,sp,384
    101e:	7200                	ld	s0,32(a2)
    1020:	00d0                	addi	a2,sp,68
    1022:	0008                	.2byte	0x8
    1024:	0000                	unimp
    1026:	0000                	unimp
    1028:	0000                	unimp
    102a:	0036                	c.slli	zero,0xd
    102c:	0000                	unimp
    102e:	0000                	unimp
    1030:	0000                	unimp
    1032:	0002                	c.slli64	zero
    1034:	0078                	addi	a4,sp,12
    1036:	0036                	c.slli	zero,0xd
    1038:	0000                	unimp
    103a:	0000                	unimp
    103c:	0000                	unimp
    103e:	0038                	addi	a4,sp,8
    1040:	0000                	unimp
    1042:	0000                	unimp
    1044:	0000                	unimp
    1046:	d0720003          	lb	zero,-761(tp) # fffffffffffffd07 <ustack+0xfffffffffffeec27>
    104a:	3800                	fld	fs0,48(s0)
    104c:	0000                	unimp
    104e:	0000                	unimp
    1050:	0000                	unimp
    1052:	3a00                	fld	fs0,48(a2)
    1054:	0000                	unimp
    1056:	0000                	unimp
    1058:	0000                	unimp
    105a:	0200                	addi	s0,sp,256
    105c:	7200                	ld	s0,32(a2)
    105e:	3a00                	fld	fs0,48(a2)
    1060:	0000                	unimp
    1062:	0000                	unimp
    1064:	0000                	unimp
    1066:	4600                	lw	s0,8(a2)
    1068:	0000                	unimp
    106a:	0000                	unimp
    106c:	0000                	unimp
    106e:	0200                	addi	s0,sp,256
    1070:	7800                	ld	s0,48(s0)
	...
    1082:	2200                	fld	fs0,0(a2)
    1084:	0001                	nop
    1086:	0000                	unimp
    1088:	0000                	unimp
    108a:	2400                	fld	fs0,8(s0)
    108c:	0001                	nop
    108e:	0000                	unimp
    1090:	0000                	unimp
    1092:	0200                	addi	s0,sp,256
    1094:	7200                	ld	s0,32(a2)
    1096:	2400                	fld	fs0,8(s0)
    1098:	0001                	nop
    109a:	0000                	unimp
    109c:	0000                	unimp
    109e:	2a00                	fld	fs0,16(a2)
    10a0:	0001                	nop
    10a2:	0000                	unimp
    10a4:	0000                	unimp
    10a6:	0200                	addi	s0,sp,256
    10a8:	7200                	ld	s0,32(a2)
    10aa:	2a10                	fld	fa2,16(a2)
    10ac:	0001                	nop
    10ae:	0000                	unimp
    10b0:	0000                	unimp
    10b2:	3400                	fld	fs0,40(s0)
    10b4:	0001                	nop
    10b6:	0000                	unimp
    10b8:	0000                	unimp
    10ba:	0200                	addi	s0,sp,256
    10bc:	7800                	ld	s0,48(s0)
	...
    10ce:	e200                	sd	s0,0(a2)
    10d0:	0000                	unimp
    10d2:	0000                	unimp
    10d4:	0000                	unimp
    10d6:	e400                	sd	s0,8(s0)
    10d8:	0000                	unimp
    10da:	0000                	unimp
    10dc:	0000                	unimp
    10de:	0200                	addi	s0,sp,256
    10e0:	7200                	ld	s0,32(a2)
    10e2:	e400                	sd	s0,8(s0)
    10e4:	0000                	unimp
    10e6:	0000                	unimp
    10e8:	0000                	unimp
    10ea:	ea00                	sd	s0,16(a2)
    10ec:	0000                	unimp
    10ee:	0000                	unimp
    10f0:	0000                	unimp
    10f2:	0200                	addi	s0,sp,256
    10f4:	7200                	ld	s0,32(a2)
    10f6:	ea10                	sd	a2,16(a2)
    10f8:	0000                	unimp
    10fa:	0000                	unimp
    10fc:	0000                	unimp
    10fe:	1e00                	addi	s0,sp,816
    1100:	0001                	nop
    1102:	0000                	unimp
    1104:	0000                	unimp
    1106:	0200                	addi	s0,sp,256
    1108:	7800                	ld	s0,48(s0)
    110a:	1e00                	addi	s0,sp,816
    110c:	0001                	nop
    110e:	0000                	unimp
    1110:	0000                	unimp
    1112:	2000                	fld	fs0,0(s0)
    1114:	0001                	nop
    1116:	0000                	unimp
    1118:	0000                	unimp
    111a:	0200                	addi	s0,sp,256
    111c:	7200                	ld	s0,32(a2)
    111e:	2010                	fld	fa2,0(s0)
    1120:	0001                	nop
    1122:	0000                	unimp
    1124:	0000                	unimp
    1126:	2200                	fld	fs0,0(a2)
    1128:	0001                	nop
    112a:	0000                	unimp
    112c:	0000                	unimp
    112e:	0200                	addi	s0,sp,256
    1130:	7200                	ld	s0,32(a2)
	...
    1142:	6600                	ld	s0,8(a2)
    1144:	0000                	unimp
    1146:	0000                	unimp
    1148:	0000                	unimp
    114a:	6800                	ld	s0,16(s0)
    114c:	0000                	unimp
    114e:	0000                	unimp
    1150:	0000                	unimp
    1152:	0200                	addi	s0,sp,256
    1154:	7200                	ld	s0,32(a2)
    1156:	6800                	ld	s0,16(s0)
    1158:	0000                	unimp
    115a:	0000                	unimp
    115c:	0000                	unimp
    115e:	6c00                	ld	s0,24(s0)
    1160:	0000                	unimp
    1162:	0000                	unimp
    1164:	0000                	unimp
    1166:	0200                	addi	s0,sp,256
    1168:	7200                	ld	s0,32(a2)
    116a:	6c10                	ld	a2,24(s0)
    116c:	0000                	unimp
    116e:	0000                	unimp
    1170:	0000                	unimp
    1172:	b600                	fsd	fs0,40(a2)
    1174:	0000                	unimp
    1176:	0000                	unimp
    1178:	0000                	unimp
    117a:	0200                	addi	s0,sp,256
    117c:	7800                	ld	s0,48(s0)
    117e:	b600                	fsd	fs0,40(a2)
    1180:	0000                	unimp
    1182:	0000                	unimp
    1184:	0000                	unimp
    1186:	b800                	fsd	fs0,48(s0)
    1188:	0000                	unimp
    118a:	0000                	unimp
    118c:	0000                	unimp
    118e:	0200                	addi	s0,sp,256
    1190:	7200                	ld	s0,32(a2)
    1192:	b810                	fsd	fa2,48(s0)
    1194:	0000                	unimp
    1196:	0000                	unimp
    1198:	0000                	unimp
    119a:	ba00                	fsd	fs0,48(a2)
    119c:	0000                	unimp
    119e:	0000                	unimp
    11a0:	0000                	unimp
    11a2:	0200                	addi	s0,sp,256
    11a4:	7200                	ld	s0,32(a2)
	...
    11b6:	9c00                	.2byte	0x9c00
    11b8:	0000                	unimp
    11ba:	0000                	unimp
    11bc:	0000                	unimp
    11be:	a000                	fsd	fs0,0(s0)
    11c0:	0000                	unimp
    11c2:	0000                	unimp
    11c4:	0000                	unimp
    11c6:	0100                	addi	s0,sp,128
    11c8:	5f00                	lw	s0,56(a4)
    11ca:	00a0                	addi	s0,sp,72
    11cc:	0000                	unimp
    11ce:	0000                	unimp
    11d0:	0000                	unimp
    11d2:	00a4                	addi	s1,sp,72
    11d4:	0000                	unimp
    11d6:	0000                	unimp
    11d8:	0000                	unimp
    11da:	0006                	c.slli	zero,0x1
    11dc:	007f                	.2byte	0x7f
    11de:	2008                	fld	fa0,0(s0)
    11e0:	9f21                	addw	a4,a4,s0
    11e2:	00a4                	addi	s1,sp,72
    11e4:	0000                	unimp
    11e6:	0000                	unimp
    11e8:	0000                	unimp
    11ea:	00aa                	slli	ra,ra,0xa
    11ec:	0000                	unimp
    11ee:	0000                	unimp
    11f0:	0000                	unimp
    11f2:	0001                	nop
    11f4:	005f 0000 0000      	.byte	0x5f, 0x00, 0x00, 0x00, 0x00, 0x00
	...
    1202:	0000                	unimp
    1204:	8e00                	.2byte	0x8e00
    1206:	0000                	unimp
    1208:	0000                	unimp
    120a:	0000                	unimp
    120c:	9400                	.2byte	0x9400
    120e:	0000                	unimp
    1210:	0000                	unimp
    1212:	0000                	unimp
    1214:	0200                	addi	s0,sp,256
    1216:	7f00                	ld	s0,56(a4)
    1218:	0010                	.2byte	0x10
	...
    1226:	0000                	unimp
    1228:	a000                	fsd	fs0,0(s0)
    122a:	0000                	unimp
    122c:	0000                	unimp
    122e:	0000                	unimp
    1230:	a400                	fsd	fs0,8(s0)
    1232:	0000                	unimp
    1234:	0000                	unimp
    1236:	0000                	unimp
    1238:	0600                	addi	s0,sp,768
    123a:	7f00                	ld	s0,56(a4)
    123c:	0800                	addi	s0,sp,16
    123e:	2120                	fld	fs0,64(a0)
    1240:	a49f 0000 0000      	.byte	0x9f, 0xa4, 0x00, 0x00, 0x00, 0x00
    1246:	0000                	unimp
    1248:	a800                	fsd	fs0,16(s0)
    124a:	0000                	unimp
    124c:	0000                	unimp
    124e:	0000                	unimp
    1250:	0100                	addi	s0,sp,128
    1252:	5f00                	lw	s0,56(a4)
	...
    1264:	00a8                	addi	a0,sp,72
    1266:	0000                	unimp
    1268:	0000                	unimp
    126a:	0000                	unimp
    126c:	00b0                	addi	a2,sp,72
    126e:	0000                	unimp
    1270:	0000                	unimp
    1272:	0000                	unimp
    1274:	000c                	.2byte	0xc
    1276:	00905003          	lhu	zero,9(zero) # 9 <_entry+0x9>
    127a:	0000                	unimp
    127c:	0000                	unimp
    127e:	0600                	addi	s0,sp,768
    1280:	00001823          	sh	zero,16(zero) # 10 <_entry+0x10>
	...
    1290:	0000                	unimp
    1292:	00ba                	slli	ra,ra,0xe
    1294:	0000                	unimp
    1296:	0000                	unimp
    1298:	0000                	unimp
    129a:	00bc                	addi	a5,sp,72
    129c:	0000                	unimp
    129e:	0000                	unimp
    12a0:	0000                	unimp
    12a2:	0002                	c.slli64	zero
    12a4:	0072                	c.slli	zero,0x1c
    12a6:	00bc                	addi	a5,sp,72
    12a8:	0000                	unimp
    12aa:	0000                	unimp
    12ac:	0000                	unimp
    12ae:	00c2                	slli	ra,ra,0x10
    12b0:	0000                	unimp
    12b2:	0000                	unimp
    12b4:	0000                	unimp
    12b6:	0002                	c.slli64	zero
    12b8:	1072                	c.slli	zero,0x3c
    12ba:	00c2                	slli	ra,ra,0x10
    12bc:	0000                	unimp
    12be:	0000                	unimp
    12c0:	0000                	unimp
    12c2:	00de                	slli	ra,ra,0x17
    12c4:	0000                	unimp
    12c6:	0000                	unimp
    12c8:	0000                	unimp
    12ca:	0002                	c.slli64	zero
    12cc:	0078                	addi	a4,sp,12
    12ce:	00de                	slli	ra,ra,0x17
    12d0:	0000                	unimp
    12d2:	0000                	unimp
    12d4:	0000                	unimp
    12d6:	00e0                	addi	s0,sp,76
    12d8:	0000                	unimp
    12da:	0000                	unimp
    12dc:	0000                	unimp
    12de:	0002                	c.slli64	zero
    12e0:	1072                	c.slli	zero,0x3c
    12e2:	00e0                	addi	s0,sp,76
    12e4:	0000                	unimp
    12e6:	0000                	unimp
    12e8:	0000                	unimp
    12ea:	00e2                	slli	ra,ra,0x18
    12ec:	0000                	unimp
    12ee:	0000                	unimp
    12f0:	0000                	unimp
    12f2:	0002                	c.slli64	zero
    12f4:	0072                	c.slli	zero,0x1c
	...
    130e:	002e                	c.slli	zero,0xb
    1310:	0000                	unimp
    1312:	0000                	unimp
    1314:	0000                	unimp
    1316:	0002                	c.slli64	zero
    1318:	0072                	c.slli	zero,0x1c
    131a:	002e                	c.slli	zero,0xb
    131c:	0000                	unimp
    131e:	0000                	unimp
    1320:	0000                	unimp
    1322:	0034                	addi	a3,sp,8
    1324:	0000                	unimp
    1326:	0000                	unimp
    1328:	0000                	unimp
    132a:	0002                	c.slli64	zero
    132c:	1072                	c.slli	zero,0x3c
    132e:	0034                	addi	a3,sp,8
    1330:	0000                	unimp
    1332:	0000                	unimp
    1334:	0000                	unimp
    1336:	0062                	c.slli	zero,0x18
    1338:	0000                	unimp
    133a:	0000                	unimp
    133c:	0000                	unimp
    133e:	0002                	c.slli64	zero
    1340:	0078                	addi	a4,sp,12
    1342:	0062                	c.slli	zero,0x18
    1344:	0000                	unimp
    1346:	0000                	unimp
    1348:	0000                	unimp
    134a:	0064                	addi	s1,sp,12
    134c:	0000                	unimp
    134e:	0000                	unimp
    1350:	0000                	unimp
    1352:	0002                	c.slli64	zero
    1354:	1072                	c.slli	zero,0x3c
    1356:	0064                	addi	s1,sp,12
    1358:	0000                	unimp
    135a:	0000                	unimp
    135c:	0000                	unimp
    135e:	0066                	c.slli	zero,0x19
    1360:	0000                	unimp
    1362:	0000                	unimp
    1364:	0000                	unimp
    1366:	0002                	c.slli64	zero
    1368:	0072                	c.slli	zero,0x1c
	...
    137a:	001a                	c.slli	zero,0x6
    137c:	0000                	unimp
    137e:	0000                	unimp
    1380:	0000                	unimp
    1382:	0024                	addi	s1,sp,8
    1384:	0000                	unimp
    1386:	0000                	unimp
    1388:	0000                	unimp
    138a:	007a000f          	.4byte	0x7a000f
    138e:	243c                	fld	fa5,72(s0)
    1390:	2008                	fld	fa0,0(s0)
    1392:	0824                	addi	s1,sp,24
    1394:	2620                	fld	fs0,72(a2)
    1396:	4b40                	lw	s0,20(a4)
    1398:	2224                	fld	fs1,64(a2)
    139a:	249f 0000 0000      	.byte	0x9f, 0x24, 0x00, 0x00, 0x00, 0x00
    13a0:	0000                	unimp
    13a2:	2c00                	fld	fs0,24(s0)
    13a4:	0000                	unimp
    13a6:	0000                	unimp
    13a8:	0000                	unimp
    13aa:	0f00                	addi	s0,sp,912
    13ac:	7e00                	ld	s0,56(a2)
    13ae:	3c7f                	.2byte	0x3c7f
    13b0:	0824                	addi	s1,sp,24
    13b2:	2420                	fld	fs0,72(s0)
    13b4:	2008                	fld	fa0,0(s0)
    13b6:	4026                	.2byte	0x4026
    13b8:	9f22244b          	.4byte	0x9f22244b
    13bc:	004e                	c.slli	zero,0x13
    13be:	0000                	unimp
    13c0:	0000                	unimp
    13c2:	0000                	unimp
    13c4:	0058                	addi	a4,sp,4
    13c6:	0000                	unimp
    13c8:	0000                	unimp
    13ca:	0000                	unimp
    13cc:	007a000f          	.4byte	0x7a000f
    13d0:	243c                	fld	fa5,72(s0)
    13d2:	2008                	fld	fa0,0(s0)
    13d4:	0824                	addi	s1,sp,24
    13d6:	2620                	fld	fs0,72(a2)
    13d8:	4b40                	lw	s0,20(a4)
    13da:	2224                	fld	fs1,64(a2)
    13dc:	589f 0000 0000      	.byte	0x9f, 0x58, 0x00, 0x00, 0x00, 0x00
    13e2:	0000                	unimp
    13e4:	6600                	ld	s0,8(a2)
    13e6:	0000                	unimp
    13e8:	0000                	unimp
    13ea:	0000                	unimp
    13ec:	0f00                	addi	s0,sp,912
    13ee:	7e00                	ld	s0,56(a2)
    13f0:	3c7f                	.2byte	0x3c7f
    13f2:	0824                	addi	s1,sp,24
    13f4:	2420                	fld	fs0,72(s0)
    13f6:	2008                	fld	fa0,0(s0)
    13f8:	4026                	.2byte	0x4026
    13fa:	9f22244b          	.4byte	0x9f22244b
	...
    1416:	0002                	c.slli64	zero
    1418:	0000                	unimp
    141a:	0000                	unimp
    141c:	0000                	unimp
    141e:	0002                	c.slli64	zero
    1420:	0072                	c.slli	zero,0x1c
    1422:	0002                	c.slli64	zero
    1424:	0000                	unimp
    1426:	0000                	unimp
    1428:	0000                	unimp
    142a:	0006                	c.slli	zero,0x1
    142c:	0000                	unimp
    142e:	0000                	unimp
    1430:	0000                	unimp
    1432:	0002                	c.slli64	zero
    1434:	1072                	c.slli	zero,0x3c
    1436:	0006                	c.slli	zero,0x1
    1438:	0000                	unimp
    143a:	0000                	unimp
    143c:	0000                	unimp
    143e:	0010                	.2byte	0x10
    1440:	0000                	unimp
    1442:	0000                	unimp
    1444:	0000                	unimp
    1446:	0002                	c.slli64	zero
    1448:	0078                	addi	a4,sp,12
    144a:	0010                	.2byte	0x10
    144c:	0000                	unimp
    144e:	0000                	unimp
    1450:	0000                	unimp
    1452:	0012                	c.slli	zero,0x4
    1454:	0000                	unimp
    1456:	0000                	unimp
    1458:	0000                	unimp
    145a:	0002                	c.slli64	zero
    145c:	1072                	c.slli	zero,0x3c
    145e:	0012                	c.slli	zero,0x4
    1460:	0000                	unimp
    1462:	0000                	unimp
    1464:	0000                	unimp
    1466:	0014                	.2byte	0x14
    1468:	0000                	unimp
    146a:	0000                	unimp
    146c:	0000                	unimp
    146e:	0002                	c.slli64	zero
    1470:	0072                	c.slli	zero,0x1c
	...

Disassembly of section .debug_aranges:

0000000000000000 <.debug_aranges>:
   0:	002c                	addi	a1,sp,8
   2:	0000                	unimp
   4:	0002                	c.slli64	zero
   6:	0000                	unimp
   8:	0000                	unimp
   a:	0008                	.2byte	0x8
   c:	0000                	unimp
   e:	0000                	unimp
  10:	001c                	.2byte	0x1c
  12:	0000                	unimp
  14:	0000                	unimp
  16:	0000                	unimp
  18:	0066                	c.slli	zero,0x19
	...
  2e:	0000                	unimp
  30:	002c                	addi	a1,sp,8
  32:	0000                	unimp
  34:	0002                	c.slli64	zero
  36:	036a                	slli	t1,t1,0x1a
  38:	0000                	unimp
  3a:	0008                	.2byte	0x8
  3c:	0000                	unimp
  3e:	0000                	unimp
  40:	0082                	c.slli64	ra
  42:	0000                	unimp
  44:	0000                	unimp
  46:	0000                	unimp
  48:	0058                	addi	a4,sp,4
	...
  5e:	0000                	unimp
  60:	002c                	addi	a1,sp,8
  62:	0000                	unimp
  64:	0002                	c.slli64	zero
  66:	0568                	addi	a0,sp,652
  68:	0000                	unimp
  6a:	0008                	.2byte	0x8
  6c:	0000                	unimp
  6e:	0000                	unimp
  70:	00da                	slli	ra,ra,0x16
  72:	0000                	unimp
  74:	0000                	unimp
  76:	0000                	unimp
  78:	01a4                	addi	s1,sp,200
	...
  8e:	0000                	unimp
  90:	002c                	addi	a1,sp,8
  92:	0000                	unimp
  94:	0002                	c.slli64	zero
  96:	0000090b          	.4byte	0x90b
  9a:	0008                	.2byte	0x8
  9c:	0000                	unimp
  9e:	0000                	unimp
  a0:	027e                	slli	tp,tp,0x1f
  a2:	0000                	unimp
  a4:	0000                	unimp
  a6:	0000                	unimp
  a8:	0024                	addi	s1,sp,8
	...
  be:	0000                	unimp
  c0:	002c                	addi	a1,sp,8
  c2:	0000                	unimp
  c4:	0002                	c.slli64	zero
  c6:	09f4                	addi	a3,sp,220
  c8:	0000                	unimp
  ca:	0008                	.2byte	0x8
  cc:	0000                	unimp
  ce:	0000                	unimp
  d0:	02a2                	slli	t0,t0,0x8
  d2:	0000                	unimp
  d4:	0000                	unimp
  d6:	0000                	unimp
  d8:	0046                	c.slli	zero,0x11
	...
  ee:	0000                	unimp
  f0:	002c                	addi	a1,sp,8
  f2:	0000                	unimp
  f4:	0002                	c.slli64	zero
  f6:	0c45                	addi	s8,s8,17
  f8:	0000                	unimp
  fa:	0008                	.2byte	0x8
  fc:	0000                	unimp
  fe:	0000                	unimp
 100:	02e8                	addi	a0,sp,332
 102:	0000                	unimp
 104:	0000                	unimp
 106:	0000                	unimp
 108:	0134                	addi	a3,sp,136
	...
 11e:	0000                	unimp
 120:	002c                	addi	a1,sp,8
 122:	0000                	unimp
 124:	0002                	c.slli64	zero
 126:	13ff                	.2byte	0x13ff
 128:	0000                	unimp
 12a:	0008                	.2byte	0x8
 12c:	0000                	unimp
 12e:	0000                	unimp
 130:	041c                	addi	a5,sp,512
 132:	0000                	unimp
 134:	0000                	unimp
 136:	0000                	unimp
 138:	0014                	.2byte	0x14
	...

Disassembly of section .debug_ranges:

0000000000000000 <.debug_ranges>:
   0:	0014                	.2byte	0x14
   2:	0000                	unimp
   4:	0000                	unimp
   6:	0000                	unimp
   8:	0014                	.2byte	0x14
   a:	0000                	unimp
   c:	0000                	unimp
   e:	0000                	unimp
  10:	0016                	c.slli	zero,0x5
  12:	0000                	unimp
  14:	0000                	unimp
  16:	0000                	unimp
  18:	0018                	.2byte	0x18
	...
  2e:	0000                	unimp
  30:	0024                	addi	s1,sp,8
  32:	0000                	unimp
  34:	0000                	unimp
  36:	0000                	unimp
  38:	0024                	addi	s1,sp,8
  3a:	0000                	unimp
  3c:	0000                	unimp
  3e:	0000                	unimp
  40:	002c                	addi	a1,sp,8
  42:	0000                	unimp
  44:	0000                	unimp
  46:	0000                	unimp
  48:	0030                	addi	a2,sp,8
	...
  5e:	0000                	unimp
  60:	0052                	c.slli	zero,0x14
  62:	0000                	unimp
  64:	0000                	unimp
  66:	0000                	unimp
  68:	0052                	c.slli	zero,0x14
  6a:	0000                	unimp
  6c:	0000                	unimp
  6e:	0000                	unimp
  70:	0056                	c.slli	zero,0x15
  72:	0000                	unimp
  74:	0000                	unimp
  76:	0000                	unimp
  78:	005a                	c.slli	zero,0x16
	...
  8e:	0000                	unimp
  90:	00a0                	addi	s0,sp,72
  92:	0000                	unimp
  94:	0000                	unimp
  96:	0000                	unimp
  98:	00a0                	addi	s0,sp,72
  9a:	0000                	unimp
  9c:	0000                	unimp
  9e:	0000                	unimp
  a0:	00a4                	addi	s1,sp,72
  a2:	0000                	unimp
  a4:	0000                	unimp
  a6:	0000                	unimp
  a8:	00a8                	addi	a0,sp,72
	...
  be:	0000                	unimp
  c0:	00a8                	addi	a0,sp,72
  c2:	0000                	unimp
  c4:	0000                	unimp
  c6:	0000                	unimp
  c8:	00a8                	addi	a0,sp,72
  ca:	0000                	unimp
  cc:	0000                	unimp
  ce:	0000                	unimp
  d0:	00aa                	slli	ra,ra,0xa
  d2:	0000                	unimp
  d4:	0000                	unimp
  d6:	0000                	unimp
  d8:	00b0                	addi	a2,sp,72
	...

Disassembly of section .debug_line:

0000000000000000 <.debug_line>:
   0:	018e                	slli	gp,gp,0x3
   2:	0000                	unimp
   4:	00410003          	lb	zero,4(sp)
   8:	0000                	unimp
   a:	0101                	addi	sp,sp,0
   c:	000d0efb          	.4byte	0xd0efb
  10:	0101                	addi	sp,sp,0
  12:	0101                	addi	sp,sp,0
  14:	0000                	unimp
  16:	0100                	addi	s0,sp,128
  18:	0000                	unimp
  1a:	7601                	lui	a2,0xfffe0
  1c:	006d                	c.nop	27
  1e:	7300                	ld	s0,32(a4)
  20:	6174                	ld	a3,192(a0)
  22:	7472                	ld	s0,312(sp)
  24:	632e                	ld	t1,200(sp)
  26:	0100                	addi	s0,sp,128
  28:	0000                	unimp
  2a:	6972                	ld	s2,280(sp)
  2c:	2e766373          	csrrsi	t1,0x2e7,12
  30:	0068                	addi	a0,sp,12
  32:	0001                	nop
  34:	7400                	ld	s0,40(s0)
  36:	7079                	c.lui	zero,0xffffe
  38:	7365                	lui	t1,0xffff9
  3a:	682e                	ld	a6,200(sp)
  3c:	0100                	addi	s0,sp,128
  3e:	0000                	unimp
  40:	6564                	ld	s1,200(a0)
  42:	7366                	ld	t1,120(sp)
  44:	682e                	ld	a6,200(sp)
  46:	0100                	addi	s0,sp,128
  48:	0000                	unimp
  4a:	0500                	addi	s0,sp,640
  4c:	0001                	nop
  4e:	0209                	addi	tp,tp,2 # 2 <_entry+0x2>
  50:	001c                	.2byte	0x1c
  52:	0000                	unimp
  54:	0000                	unimp
  56:	0000                	unimp
  58:	05011703          	lh	a4,80(sp)
  5c:	09010303          	lb	t1,144(sp)
  60:	0008                	.2byte	0x8
  62:	0301                	addi	t1,t1,0 # ffffffffffff9000 <ustack+0xfffffffffffe7f20>
  64:	00080903          	lb	s2,0(a6)
  68:	0401                	addi	s0,s0,0
  6a:	0302                	c.slli64	t1
  6c:	0904                	addi	s1,sp,144
  6e:	0000                	unimp
  70:	0301                	addi	t1,t1,0
  72:	0901                	addi	s2,s2,0
  74:	0000                	unimp
  76:	0301                	addi	t1,t1,0
  78:	0901                	addi	s2,s2,0
  7a:	0004                	.2byte	0x4
  7c:	0401                	addi	s0,s0,0
  7e:	0301                	addi	t1,t1,0
  80:	0000097b          	.4byte	0x97b
  84:	0401                	addi	s0,s0,0
  86:	0302                	c.slli64	t1
  88:	000902b3          	add	t0,s2,zero
  8c:	0100                	addi	s0,sp,128
  8e:	0104                	addi	s1,sp,128
  90:	0306                	slli	t1,t1,0x1
  92:	7dcd                	lui	s11,0xffff3
  94:	0009                	c.nop	2
  96:	0100                	addi	s0,sp,128
  98:	0204                	addi	s1,sp,256
  9a:	0902b303          	ld	t1,144(t0) # 10c478c <ustack+0x10b36ac>
  9e:	0002                	c.slli64	zero
  a0:	0401                	addi	s0,s0,0
  a2:	0601                	addi	a2,a2,0 # fffffffffffe0000 <ustack+0xfffffffffffcef20>
  a4:	097dd003          	lhu	zero,151(s11) # ffffffffffff3097 <ustack+0xfffffffffffe1fb7>
  a8:	0002                	c.slli64	zero
  aa:	0401                	addi	s0,s0,0
  ac:	0302                	c.slli64	t1
  ae:	0910                	addi	a2,sp,144
  b0:	0000                	unimp
  b2:	0301                	addi	t1,t1,0
  b4:	0901                	addi	s2,s2,0
  b6:	0000                	unimp
  b8:	0301                	addi	t1,t1,0
  ba:	0901                	addi	s2,s2,0
  bc:	0004                	.2byte	0x4
  be:	0401                	addi	s0,s0,0
  c0:	0301                	addi	t1,t1,0
  c2:	0000096f          	jal	s2,c2 <userret+0x26>
  c6:	0501                	addi	a0,a0,0
  c8:	0605                	addi	a2,a2,1
  ca:	00090003          	lb	zero,0(s2)
  ce:	0100                	addi	s0,sp,128
  d0:	0305                	addi	t1,t1,1
  d2:	0306                	slli	t1,t1,0x1
  d4:	0901                	addi	s2,s2,0
  d6:	0008                	.2byte	0x8
  d8:	0301                	addi	t1,t1,0
  da:	0901                	addi	s2,s2,0
  dc:	0000                	unimp
  de:	0401                	addi	s0,s0,0
  e0:	0302                	c.slli64	t1
  e2:	0915                	addi	s2,s2,5
  e4:	0000                	unimp
  e6:	0401                	addi	s0,s0,0
  e8:	0501                	addi	a0,a0,0
  ea:	0605                	addi	a2,a2,1
  ec:	00096a03          	lwu	s4,0(s2)
  f0:	0100                	addi	s0,sp,128
  f2:	0204                	addi	s1,sp,256
  f4:	0305                	addi	t1,t1,1
  f6:	08091603          	lh	a2,128(s2)
  fa:	0100                	addi	s0,sp,128
  fc:	0104                	addi	s1,sp,128
  fe:	0306                	slli	t1,t1,0x1
 100:	096e                	slli	s2,s2,0x1b
 102:	0004                	.2byte	0x4
 104:	0401                	addi	s0,s0,0
 106:	0302                	c.slli64	t1
 108:	01c4                	addi	s1,sp,196
 10a:	0009                	c.nop	2
 10c:	0100                	addi	s0,sp,128
 10e:	0104                	addi	s1,sp,128
 110:	097ebf03          	ld	t5,151(t4)
 114:	0006                	c.slli	zero,0x1
 116:	0401                	addi	s0,s0,0
 118:	0302                	c.slli64	t1
 11a:	0918                	addi	a4,sp,144
 11c:	0000                	unimp
 11e:	0401                	addi	s0,s0,0
 120:	0301                	addi	t1,t1,0
 122:	000c096b          	.4byte	0xc096b
 126:	0401                	addi	s0,s0,0
 128:	0302                	c.slli64	t1
 12a:	00fe                	slli	ra,ra,0x1f
 12c:	0009                	c.nop	2
 12e:	0100                	addi	s0,sp,128
 130:	0104                	addi	s1,sp,128
 132:	097f8303          	lb	t1,151(t6)
 136:	0008                	.2byte	0x8
 138:	0401                	addi	s0,s0,0
 13a:	0302                	c.slli64	t1
 13c:	018c                	addi	a1,sp,192
 13e:	0009                	c.nop	2
 140:	0100                	addi	s0,sp,128
 142:	0104                	addi	s1,sp,128
 144:	097ef503          	.4byte	0x97ef503
 148:	0004                	.2byte	0x4
 14a:	0401                	addi	s0,s0,0
 14c:	0302                	c.slli64	t1
 14e:	00c2                	slli	ra,ra,0x10
 150:	0009                	c.nop	2
 152:	0100                	addi	s0,sp,128
 154:	00090103          	lb	sp,0(s2)
 158:	0100                	addi	s0,sp,128
 15a:	04090103          	lb	sp,64(s2)
 15e:	0100                	addi	s0,sp,128
 160:	00090603          	lb	a2,0(s2)
 164:	0100                	addi	s0,sp,128
 166:	0104                	addi	s1,sp,128
 168:	0306                	slli	t1,t1,0x1
 16a:	7fb6                	ld	t6,360(sp)
 16c:	0009                	c.nop	2
 16e:	0100                	addi	s0,sp,128
 170:	0204                	addi	s1,sp,256
 172:	0900ca03          	lbu	s4,144(ra)
 176:	0004                	.2byte	0x4
 178:	0401                	addi	s0,s0,0
 17a:	0601                	addi	a2,a2,0
 17c:	097fb903          	ld	s2,151(t6)
 180:	0004                	.2byte	0x4
 182:	0501                	addi	a0,a0,0
 184:	0601                	addi	a2,a2,0
 186:	04090103          	lb	sp,64(s2)
 18a:	0100                	addi	s0,sp,128
 18c:	0809                	addi	a6,a6,2
 18e:	0000                	unimp
 190:	0101                	addi	sp,sp,0
 192:	00bd                	addi	ra,ra,15
 194:	0000                	unimp
 196:	00410003          	lb	zero,4(sp)
 19a:	0000                	unimp
 19c:	0101                	addi	sp,sp,0
 19e:	000d0efb          	.4byte	0xd0efb
 1a2:	0101                	addi	sp,sp,0
 1a4:	0101                	addi	sp,sp,0
 1a6:	0000                	unimp
 1a8:	0100                	addi	s0,sp,128
 1aa:	0000                	unimp
 1ac:	7601                	lui	a2,0xfffe0
 1ae:	006d                	c.nop	27
 1b0:	7200                	ld	s0,32(a2)
 1b2:	6d61                	lui	s10,0x18
 1b4:	6964                	ld	s1,208(a0)
 1b6:	632e6b73          	csrrsi	s6,0x632,28
 1ba:	0100                	addi	s0,sp,128
 1bc:	0000                	unimp
 1be:	7974                	ld	a3,240(a0)
 1c0:	6570                	ld	a2,200(a0)
 1c2:	00682e73          	csrrs	t3,0x6,a6
 1c6:	0001                	nop
 1c8:	6200                	ld	s0,0(a2)
 1ca:	6675                	lui	a2,0x1d
 1cc:	682e                	ld	a6,200(sp)
 1ce:	0100                	addi	s0,sp,128
 1d0:	0000                	unimp
 1d2:	6564                	ld	s1,200(a0)
 1d4:	7366                	ld	t1,120(sp)
 1d6:	682e                	ld	a6,200(sp)
 1d8:	0100                	addi	s0,sp,128
 1da:	0000                	unimp
 1dc:	0500                	addi	s0,sp,640
 1de:	0001                	nop
 1e0:	0209                	addi	tp,tp,2 # 2 <_entry+0x2>
 1e2:	0082                	c.slli64	ra
 1e4:	0000                	unimp
 1e6:	0000                	unimp
 1e8:	0000                	unimp
 1ea:	05010f03          	lb	t5,80(sp)
 1ee:	09020303          	lb	t1,144(tp) # 90 <ramdiskrw+0xe>
 1f2:	000c                	.2byte	0xc
 1f4:	0501                	addi	a0,a0,0
 1f6:	0605                	addi	a2,a2,1 # 1d001 <ustack+0xbf21>
 1f8:	00090003          	lb	zero,0(s2)
 1fc:	0100                	addi	s0,sp,128
 1fe:	0305                	addi	t1,t1,1
 200:	0306                	slli	t1,t1,0x1
 202:	000a0903          	lb	s2,0(s4)
 206:	0301                	addi	t1,t1,0
 208:	0901                	addi	s2,s2,0
 20a:	0000                	unimp
 20c:	0301                	addi	t1,t1,0
 20e:	00000903          	lb	s2,0(zero) # 0 <_entry>
 212:	0501                	addi	a0,a0,0
 214:	0620                	addi	s0,sp,776
 216:	00097c03          	.4byte	0x97c03
 21a:	0100                	addi	s0,sp,128
 21c:	0a05                	addi	s4,s4,1
 21e:	06090003          	lb	zero,96(s2)
 222:	0100                	addi	s0,sp,128
 224:	0305                	addi	t1,t1,1
 226:	04090403          	lb	s0,64(s2)
 22a:	0100                	addi	s0,sp,128
 22c:	0306                	slli	t1,t1,0x1
 22e:	0901                	addi	s2,s2,0
 230:	0018                	.2byte	0x18
 232:	0501                	addi	a0,a0,0
 234:	060c                	addi	a1,sp,768
 236:	00090003          	lb	zero,0(s2)
 23a:	0100                	addi	s0,sp,128
 23c:	0105                	addi	sp,sp,1
 23e:	04090103          	lb	sp,64(s2)
 242:	0100                	addi	s0,sp,128
 244:	0505                	addi	a0,a0,1
 246:	0306                	slli	t1,t1,0x1
 248:	0978                	addi	a4,sp,156
 24a:	000a                	c.slli	zero,0x2
 24c:	0901                	addi	s2,s2,0
 24e:	0012                	c.slli	zero,0x4
 250:	0100                	addi	s0,sp,128
 252:	ba01                	j	fffffffffffffb62 <ustack+0xfffffffffffeea82>
 254:	0004                	.2byte	0x4
 256:	0300                	addi	s0,sp,384
 258:	2d00                	fld	fs0,24(a0)
 25a:	0000                	unimp
 25c:	0100                	addi	s0,sp,128
 25e:	fb01                	bnez	a4,16e <memmove+0x38>
 260:	0d0e                	slli	s10,s10,0x3
 262:	0100                	addi	s0,sp,128
 264:	0101                	addi	sp,sp,0
 266:	0001                	nop
 268:	0000                	unimp
 26a:	0001                	nop
 26c:	0100                	addi	s0,sp,128
 26e:	6d76                	ld	s10,344(sp)
 270:	0000                	unimp
 272:	69727473          	csrrci	s0,0x697,4
 276:	676e                	ld	a4,216(sp)
 278:	632e                	ld	t1,200(sp)
 27a:	0100                	addi	s0,sp,128
 27c:	0000                	unimp
 27e:	7974                	ld	a3,240(a0)
 280:	6570                	ld	a2,200(a0)
 282:	00682e73          	csrrs	t3,0x6,a6
 286:	0001                	nop
 288:	0000                	unimp
 28a:	0105                	addi	sp,sp,1
 28c:	0900                	addi	s0,sp,144
 28e:	da02                	sw	zero,52(sp)
 290:	0000                	unimp
 292:	0000                	unimp
 294:	0000                	unimp
 296:	1600                	addi	s0,sp,800
 298:	0305                	addi	t1,t1,1
 29a:	06090103          	lb	sp,96(s2)
 29e:	0100                	addi	s0,sp,128
 2a0:	00090103          	lb	sp,0(s2)
 2a4:	0100                	addi	s0,sp,128
 2a6:	00090103          	lb	sp,0(s2)
 2aa:	0100                	addi	s0,sp,128
 2ac:	1005                	c.nop	-31
 2ae:	00090003          	lb	zero,0(s2)
 2b2:	0100                	addi	s0,sp,128
 2b4:	0505                	addi	a0,a0,1
 2b6:	0200                	addi	s0,sp,256
 2b8:	0304                	addi	s1,sp,384
 2ba:	0c090103          	lb	sp,192(s2)
 2be:	0100                	addi	s0,sp,128
 2c0:	0d05                	addi	s10,s10,1 # 18001 <ustack+0x6f21>
 2c2:	0200                	addi	s0,sp,256
 2c4:	0304                	addi	s1,sp,384
 2c6:	0306                	slli	t1,t1,0x1
 2c8:	0900                	addi	s0,sp,144
 2ca:	0000                	unimp
 2cc:	0501                	addi	a0,a0,0
 2ce:	0016                	c.slli	zero,0x5
 2d0:	0402                	c.slli64	s0
 2d2:	7f030603          	lb	a2,2032(t1)
 2d6:	0409                	addi	s0,s0,2
 2d8:	0100                	addi	s0,sp,128
 2da:	1005                	c.nop	-31
 2dc:	0200                	addi	s0,sp,256
 2de:	0304                	addi	s1,sp,384
 2e0:	00090003          	lb	zero,0(s2)
 2e4:	0100                	addi	s0,sp,128
 2e6:	0305                	addi	t1,t1,1
 2e8:	06090303          	lb	t1,96(s2)
 2ec:	0100                	addi	s0,sp,128
 2ee:	0105                	addi	sp,sp,1
 2f0:	0306                	slli	t1,t1,0x1
 2f2:	0901                	addi	s2,s2,0
 2f4:	0000                	unimp
 2f6:	0601                	addi	a2,a2,0
 2f8:	06090403          	lb	s0,96(s2)
 2fc:	0100                	addi	s0,sp,128
 2fe:	0305                	addi	t1,t1,1
 300:	06090103          	lb	sp,96(s2)
 304:	0100                	addi	s0,sp,128
 306:	00090203          	lb	tp,0(s2)
 30a:	0100                	addi	s0,sp,128
 30c:	00090103          	lb	sp,0(s2)
 310:	0100                	addi	s0,sp,128
 312:	00090103          	lb	sp,0(s2)
 316:	0100                	addi	s0,sp,128
 318:	0d05                	addi	s10,s10,1
 31a:	00090003          	lb	zero,0(s2)
 31e:	0100                	addi	s0,sp,128
 320:	0505                	addi	a0,a0,1
 322:	0e090103          	lb	sp,224(s2)
 326:	0100                	addi	s0,sp,128
 328:	0805                	addi	a6,a6,1
 32a:	0306                	slli	t1,t1,0x1
 32c:	0900                	addi	s0,sp,144
 32e:	0000                	unimp
 330:	0501                	addi	a0,a0,0
 332:	0900030f          	.4byte	0x900030f
 336:	0004                	.2byte	0x4
 338:	0501                	addi	a0,a0,0
 33a:	09000307          	.4byte	0x9000307
 33e:	0004                	.2byte	0x4
 340:	0501                	addi	a0,a0,0
 342:	0605                	addi	a2,a2,1
 344:	04090203          	lb	tp,64(s2)
 348:	0100                	addi	s0,sp,128
 34a:	0705                	addi	a4,a4,1
 34c:	0306                	slli	t1,t1,0x1
 34e:	0900                	addi	s0,sp,144
 350:	0000                	unimp
 352:	0501                	addi	a0,a0,0
 354:	030d                	addi	t1,t1,3
 356:	0900                	addi	s0,sp,144
 358:	0002                	c.slli64	zero
 35a:	0601                	addi	a2,a2,0
 35c:	02097d03          	.4byte	0x2097d03
 360:	0100                	addi	s0,sp,128
 362:	0a05                	addi	s4,s4,1
 364:	0306                	slli	t1,t1,0x1
 366:	0906                	slli	s2,s2,0x1
 368:	0004                	.2byte	0x4
 36a:	0501                	addi	a0,a0,0
 36c:	7c030607          	.4byte	0x7c030607
 370:	0409                	addi	s0,s0,2
 372:	0100                	addi	s0,sp,128
 374:	1205                	addi	tp,tp,-31 # ffffffffffffffe1 <ustack+0xfffffffffffeef01>
 376:	0306                	slli	t1,t1,0x1
 378:	0900                	addi	s0,sp,144
 37a:	0000                	unimp
 37c:	0501                	addi	a0,a0,0
 37e:	0301                	addi	t1,t1,0
 380:	0905                	addi	s2,s2,1
 382:	0004                	.2byte	0x4
 384:	0501                	addi	a0,a0,0
 386:	030a                	slli	t1,t1,0x2
 388:	097f                	.2byte	0x97f
 38a:	0006                	c.slli	zero,0x1
 38c:	0501                	addi	a0,a0,0
 38e:	0601                	addi	a2,a2,0
 390:	04090503          	lb	a0,64(s2)
 394:	0100                	addi	s0,sp,128
 396:	0305                	addi	t1,t1,1
 398:	06090103          	lb	sp,96(s2)
 39c:	0100                	addi	s0,sp,128
 39e:	00090103          	lb	sp,0(s2)
 3a2:	0100                	addi	s0,sp,128
 3a4:	00090203          	lb	tp,0(s2)
 3a8:	0100                	addi	s0,sp,128
 3aa:	0505                	addi	a0,a0,1
 3ac:	0306                	slli	t1,t1,0x1
 3ae:	0900                	addi	s0,sp,144
 3b0:	0000                	unimp
 3b2:	0501                	addi	a0,a0,0
 3b4:	03030603          	lb	a2,48(t1)
 3b8:	0209                	addi	tp,tp,2 # 2 <_entry+0x2>
 3ba:	0100                	addi	s0,sp,128
 3bc:	00090103          	lb	sp,0(s2)
 3c0:	0100                	addi	s0,sp,128
 3c2:	00090103          	lb	sp,0(s2)
 3c6:	0100                	addi	s0,sp,128
 3c8:	0505                	addi	a0,a0,1
 3ca:	0306                	slli	t1,t1,0x1
 3cc:	0900                	addi	s0,sp,144
 3ce:	0000                	unimp
 3d0:	0501                	addi	a0,a0,0
 3d2:	0603060f          	.4byte	0x603060f
 3d6:	0409                	addi	s0,s0,2
 3d8:	0100                	addi	s0,sp,128
 3da:	0105                	addi	sp,sp,1
 3dc:	0306                	slli	t1,t1,0x1
 3de:	0971                	addi	s2,s2,28
 3e0:	0008                	.2byte	0x8
 3e2:	0501                	addi	a0,a0,0
 3e4:	10030607          	.4byte	0x10030607
 3e8:	0209                	addi	tp,tp,2 # 2 <_entry+0x2>
 3ea:	0100                	addi	s0,sp,128
 3ec:	1005                	c.nop	-31
 3ee:	0306                	slli	t1,t1,0x1
 3f0:	0900                	addi	s0,sp,144
 3f2:	0000                	unimp
 3f4:	0501                	addi	a0,a0,0
 3f6:	0309                	addi	t1,t1,2
 3f8:	0900                	addi	s0,sp,144
 3fa:	0002                	c.slli64	zero
 3fc:	0501                	addi	a0,a0,0
 3fe:	030e                	slli	t1,t1,0x3
 400:	0900                	addi	s0,sp,144
 402:	0002                	c.slli64	zero
 404:	0501                	addi	a0,a0,0
 406:	030c                	addi	a1,sp,384
 408:	0900                	addi	s0,sp,144
 40a:	0004                	.2byte	0x4
 40c:	0501                	addi	a0,a0,0
 40e:	7f03060f          	.4byte	0x7f03060f
 412:	0409                	addi	s0,s0,2
 414:	0100                	addi	s0,sp,128
 416:	0105                	addi	sp,sp,1
 418:	0306                	slli	t1,t1,0x1
 41a:	0904                	addi	s1,sp,144
 41c:	0004                	.2byte	0x4
 41e:	0501                	addi	a0,a0,0
 420:	0011                	c.nop	4
 422:	0402                	c.slli64	s0
 424:	0301                	addi	t1,t1,0
 426:	0976                	slli	s2,s2,0x1d
 428:	0006                	c.slli	zero,0x1
 42a:	0501                	addi	a0,a0,0
 42c:	000c                	.2byte	0xc
 42e:	0402                	c.slli64	s0
 430:	0301                	addi	t1,t1,0
 432:	0900                	addi	s0,sp,144
 434:	000a                	c.slli	zero,0x2
 436:	0501                	addi	a0,a0,0
 438:	0605                	addi	a2,a2,1
 43a:	04090103          	lb	sp,64(s2)
 43e:	0100                	addi	s0,sp,128
 440:	00090103          	lb	sp,0(s2)
 444:	0100                	addi	s0,sp,128
 446:	0705                	addi	a4,a4,1
 448:	0306                	slli	t1,t1,0x1
 44a:	0900                	addi	s0,sp,144
 44c:	0000                	unimp
 44e:	0501                	addi	a0,a0,0
 450:	0605                	addi	a2,a2,1
 452:	02090103          	lb	sp,32(s2)
 456:	0100                	addi	s0,sp,128
 458:	0f05                	addi	t5,t5,1
 45a:	00090003          	lb	zero,0(s2)
 45e:	0100                	addi	s0,sp,128
 460:	0c05                	addi	s8,s8,1
 462:	0306                	slli	t1,t1,0x1
 464:	0900                	addi	s0,sp,144
 466:	0000                	unimp
 468:	0501                	addi	a0,a0,0
 46a:	01030607          	.4byte	0x1030607
 46e:	0e09                	addi	t3,t3,2
 470:	0100                	addi	s0,sp,128
 472:	0c05                	addi	s8,s8,1
 474:	0306                	slli	t1,t1,0x1
 476:	0900                	addi	s0,sp,144
 478:	0000                	unimp
 47a:	0501                	addi	a0,a0,0
 47c:	030e                	slli	t1,t1,0x3
 47e:	0900                	addi	s0,sp,144
 480:	0004                	.2byte	0x4
 482:	0501                	addi	a0,a0,0
 484:	030c                	addi	a1,sp,384
 486:	0900                	addi	s0,sp,144
 488:	0004                	.2byte	0x4
 48a:	0501                	addi	a0,a0,0
 48c:	7f03060f          	.4byte	0x7f03060f
 490:	0409                	addi	s0,s0,2
 492:	0100                	addi	s0,sp,128
 494:	0105                	addi	sp,sp,1
 496:	06090c03          	lb	s8,96(s2)
 49a:	0100                	addi	s0,sp,128
 49c:	0305                	addi	t1,t1,1
 49e:	08090103          	lb	sp,128(s2)
 4a2:	0100                	addi	s0,sp,128
 4a4:	0a05                	addi	s4,s4,1
 4a6:	0306                	slli	t1,t1,0x1
 4a8:	0900                	addi	s0,sp,144
 4aa:	0000                	unimp
 4ac:	0501                	addi	a0,a0,0
 4ae:	0301                	addi	t1,t1,0
 4b0:	0901                	addi	s2,s2,0
 4b2:	0008                	.2byte	0x8
 4b4:	0601                	addi	a2,a2,0
 4b6:	08090403          	lb	s0,128(s2)
 4ba:	0100                	addi	s0,sp,128
 4bc:	0305                	addi	t1,t1,1
 4be:	06090103          	lb	sp,96(s2)
 4c2:	0100                	addi	s0,sp,128
 4c4:	1505                	addi	a0,a0,-31
 4c6:	00090003          	lb	zero,0(s2)
 4ca:	0100                	addi	s0,sp,128
 4cc:	1205                	addi	tp,tp,-31 # ffffffffffffffe1 <ustack+0xfffffffffffeef01>
 4ce:	0200                	addi	s0,sp,256
 4d0:	0104                	addi	s1,sp,128
 4d2:	0306                	slli	t1,t1,0x1
 4d4:	0900                	addi	s0,sp,144
 4d6:	0002                	c.slli64	zero
 4d8:	0501                	addi	a0,a0,0
 4da:	0402000f          	.4byte	0x402000f
 4de:	0301                	addi	t1,t1,0
 4e0:	0900                	addi	s0,sp,144
 4e2:	0004                	.2byte	0x4
 4e4:	0501                	addi	a0,a0,0
 4e6:	0015                	c.nop	5
 4e8:	0402                	c.slli64	s0
 4ea:	0302                	c.slli64	t1
 4ec:	0900                	addi	s0,sp,144
 4ee:	0002                	c.slli64	zero
 4f0:	0501                	addi	a0,a0,0
 4f2:	0605                	addi	a2,a2,1
 4f4:	08090103          	lb	sp,128(s2)
 4f8:	0100                	addi	s0,sp,128
 4fa:	0605                	addi	a2,a2,1
 4fc:	0306                	slli	t1,t1,0x1
 4fe:	0900                	addi	s0,sp,144
 500:	0000                	unimp
 502:	0501                	addi	a0,a0,0
 504:	0900030b          	.4byte	0x900030b
 508:	0002                	c.slli64	zero
 50a:	0501                	addi	a0,a0,0
 50c:	0310                	addi	a2,sp,384
 50e:	0900                	addi	s0,sp,144
 510:	0002                	c.slli64	zero
 512:	0501                	addi	a0,a0,0
 514:	0615                	addi	a2,a2,5
 516:	02097f03          	.4byte	0x2097f03
 51a:	0100                	addi	s0,sp,128
 51c:	0c05                	addi	s8,s8,1
 51e:	0306                	slli	t1,t1,0x1
 520:	00020903          	lb	s2,0(tp) # 0 <_entry>
 524:	0501                	addi	a0,a0,0
 526:	7f030603          	lb	a2,2032(t1)
 52a:	0809                	addi	a6,a6,2
 52c:	0100                	addi	s0,sp,128
 52e:	0505                	addi	a0,a0,1
 530:	0306                	slli	t1,t1,0x1
 532:	0900                	addi	s0,sp,144
 534:	0000                	unimp
 536:	0501                	addi	a0,a0,0
 538:	02030603          	lb	a2,32(t1)
 53c:	0209                	addi	tp,tp,2 # 2 <_entry+0x2>
 53e:	0100                	addi	s0,sp,128
 540:	0a05                	addi	s4,s4,1
 542:	0306                	slli	t1,t1,0x1
 544:	0900                	addi	s0,sp,144
 546:	0000                	unimp
 548:	0501                	addi	a0,a0,0
 54a:	0316                	slli	t1,t1,0x5
 54c:	0900                	addi	s0,sp,144
 54e:	0004                	.2byte	0x4
 550:	0501                	addi	a0,a0,0
 552:	0314                	addi	a3,sp,384
 554:	0900                	addi	s0,sp,144
 556:	0004                	.2byte	0x4
 558:	0501                	addi	a0,a0,0
 55a:	0301                	addi	t1,t1,0
 55c:	0901                	addi	s2,s2,0
 55e:	0002                	c.slli64	zero
 560:	0501                	addi	a0,a0,0
 562:	030c                	addi	a1,sp,384
 564:	097e                	slli	s2,s2,0x1f
 566:	0006                	c.slli	zero,0x1
 568:	0501                	addi	a0,a0,0
 56a:	0601                	addi	a2,a2,0
 56c:	04090603          	lb	a2,64(s2)
 570:	0100                	addi	s0,sp,128
 572:	0305                	addi	t1,t1,1
 574:	06090103          	lb	sp,96(s2)
 578:	0100                	addi	s0,sp,128
 57a:	00090203          	lb	tp,0(s2)
 57e:	0100                	addi	s0,sp,128
 580:	00090103          	lb	sp,0(s2)
 584:	0100                	addi	s0,sp,128
 586:	0805                	addi	a6,a6,1
 588:	0306                	slli	t1,t1,0x1
 58a:	0900                	addi	s0,sp,144
 58c:	0000                	unimp
 58e:	0501                	addi	a0,a0,0
 590:	0011                	c.nop	4
 592:	0402                	c.slli64	s0
 594:	0602                	c.slli64	a2
 596:	02090003          	lb	zero,32(s2)
 59a:	0100                	addi	s0,sp,128
 59c:	0a05                	addi	s4,s4,1
 59e:	0200                	addi	s0,sp,256
 5a0:	0204                	addi	s1,sp,256
 5a2:	0306                	slli	t1,t1,0x1
 5a4:	0900                	addi	s0,sp,144
 5a6:	0002                	c.slli64	zero
 5a8:	0501                	addi	a0,a0,0
 5aa:	0011                	c.nop	4
 5ac:	0402                	c.slli64	s0
 5ae:	0302                	c.slli64	t1
 5b0:	0900                	addi	s0,sp,144
 5b2:	0002                	c.slli64	zero
 5b4:	0501                	addi	a0,a0,0
 5b6:	04020017          	auipc	zero,0x4020
 5ba:	0301                	addi	t1,t1,0
 5bc:	0900                	addi	s0,sp,144
 5be:	0004                	.2byte	0x4
 5c0:	0501                	addi	a0,a0,0
 5c2:	001c                	.2byte	0x1c
 5c4:	0402                	c.slli64	s0
 5c6:	0301                	addi	t1,t1,0
 5c8:	0900                	addi	s0,sp,144
 5ca:	0002                	c.slli64	zero
 5cc:	0501                	addi	a0,a0,0
 5ce:	001a                	c.slli	zero,0x6
 5d0:	0402                	c.slli64	s0
 5d2:	0301                	addi	t1,t1,0
 5d4:	0900                	addi	s0,sp,144
 5d6:	0004                	.2byte	0x4
 5d8:	0501                	addi	a0,a0,0
 5da:	0011                	c.nop	4
 5dc:	0402                	c.slli64	s0
 5de:	0301                	addi	t1,t1,0
 5e0:	0900                	addi	s0,sp,144
 5e2:	0004                	.2byte	0x4
 5e4:	0501                	addi	a0,a0,0
 5e6:	060d                	addi	a2,a2,3
 5e8:	04090203          	lb	tp,64(s2)
 5ec:	0100                	addi	s0,sp,128
 5ee:	0505                	addi	a0,a0,1
 5f0:	0a090103          	lb	sp,160(s2)
 5f4:	0100                	addi	s0,sp,128
 5f6:	0705                	addi	a4,a4,1
 5f8:	0306                	slli	t1,t1,0x1
 5fa:	0900                	addi	s0,sp,144
 5fc:	0000                	unimp
 5fe:	0501                	addi	a0,a0,0
 600:	030a                	slli	t1,t1,0x2
 602:	0900                	addi	s0,sp,144
 604:	0002                	c.slli64	zero
 606:	0501                	addi	a0,a0,0
 608:	060d                	addi	a2,a2,3
 60a:	04097f03          	.4byte	0x4097f03
 60e:	0100                	addi	s0,sp,128
 610:	0305                	addi	t1,t1,1
 612:	08090203          	lb	tp,128(s2)
 616:	0100                	addi	s0,sp,128
 618:	0105                	addi	sp,sp,1
 61a:	0306                	slli	t1,t1,0x1
 61c:	0901                	addi	s2,s2,0
 61e:	0000                	unimp
 620:	0601                	addi	a2,a2,0
 622:	06090503          	lb	a0,96(s2)
 626:	0100                	addi	s0,sp,128
 628:	0305                	addi	t1,t1,1
 62a:	06090103          	lb	sp,96(s2)
 62e:	0100                	addi	s0,sp,128
 630:	00090203          	lb	tp,0(s2)
 634:	0100                	addi	s0,sp,128
 636:	00090103          	lb	sp,0(s2)
 63a:	0100                	addi	s0,sp,128
 63c:	0505                	addi	a0,a0,1
 63e:	0306                	slli	t1,t1,0x1
 640:	0900                	addi	s0,sp,144
 642:	0000                	unimp
 644:	0501                	addi	a0,a0,0
 646:	0011                	c.nop	4
 648:	0402                	c.slli64	s0
 64a:	0602                	c.slli64	a2
 64c:	10090203          	lb	tp,256(s2)
 650:	0100                	addi	s0,sp,128
 652:	1e05                	addi	t3,t3,-31
 654:	0200                	addi	s0,sp,256
 656:	0104                	addi	s1,sp,128
 658:	0306                	slli	t1,t1,0x1
 65a:	0900                	addi	s0,sp,144
 65c:	0004                	.2byte	0x4
 65e:	0501                	addi	a0,a0,0
 660:	04020017          	auipc	zero,0x4020
 664:	0301                	addi	t1,t1,0
 666:	0900                	addi	s0,sp,144
 668:	0002                	c.slli64	zero
 66a:	0501                	addi	a0,a0,0
 66c:	001c                	.2byte	0x1c
 66e:	0402                	c.slli64	s0
 670:	0301                	addi	t1,t1,0
 672:	0900                	addi	s0,sp,144
 674:	0002                	c.slli64	zero
 676:	0501                	addi	a0,a0,0
 678:	001a                	c.slli	zero,0x6
 67a:	0402                	c.slli64	s0
 67c:	0301                	addi	t1,t1,0
 67e:	0900                	addi	s0,sp,144
 680:	0004                	.2byte	0x4
 682:	0501                	addi	a0,a0,0
 684:	0011                	c.nop	4
 686:	0402                	c.slli64	s0
 688:	0301                	addi	t1,t1,0
 68a:	0900                	addi	s0,sp,144
 68c:	0004                	.2byte	0x4
 68e:	0501                	addi	a0,a0,0
 690:	02030603          	lb	a2,32(t1)
 694:	0209                	addi	tp,tp,2 # 2 <_entry+0x2>
 696:	0100                	addi	s0,sp,128
 698:	0605                	addi	a2,a2,1
 69a:	0306                	slli	t1,t1,0x1
 69c:	0900                	addi	s0,sp,144
 69e:	0000                	unimp
 6a0:	0501                	addi	a0,a0,0
 6a2:	01030603          	lb	a2,16(t1)
 6a6:	0409                	addi	s0,s0,2
 6a8:	0100                	addi	s0,sp,128
 6aa:	0105                	addi	sp,sp,1
 6ac:	0306                	slli	t1,t1,0x1
 6ae:	0901                	addi	s2,s2,0
 6b0:	0000                	unimp
 6b2:	0601                	addi	a2,a2,0
 6b4:	06090403          	lb	s0,96(s2)
 6b8:	0100                	addi	s0,sp,128
 6ba:	0305                	addi	t1,t1,1
 6bc:	06090103          	lb	sp,96(s2)
 6c0:	0100                	addi	s0,sp,128
 6c2:	00090203          	lb	tp,0(s2)
 6c6:	0100                	addi	s0,sp,128
 6c8:	0e05                	addi	t3,t3,1
 6ca:	00090003          	lb	zero,0(s2)
 6ce:	0100                	addi	s0,sp,128
 6d0:	1505                	addi	a0,a0,-31
 6d2:	0200                	addi	s0,sp,256
 6d4:	0304                	addi	s1,sp,384
 6d6:	0a090003          	lb	zero,160(s2)
 6da:	0100                	addi	s0,sp,128
 6dc:	0e05                	addi	t3,t3,1
 6de:	0200                	addi	s0,sp,256
 6e0:	0304                	addi	s1,sp,384
 6e2:	00090003          	lb	zero,0(s2)
 6e6:	0100                	addi	s0,sp,128
 6e8:	1505                	addi	a0,a0,-31
 6ea:	0306                	slli	t1,t1,0x1
 6ec:	0900                	addi	s0,sp,144
 6ee:	000a                	c.slli	zero,0x2
 6f0:	0501                	addi	a0,a0,0
 6f2:	02030603          	lb	a2,32(t1)
 6f6:	0609                	addi	a2,a2,2
 6f8:	0100                	addi	s0,sp,128
 6fa:	0105                	addi	sp,sp,1
 6fc:	0306                	slli	t1,t1,0x1
 6fe:	0901                	addi	s2,s2,0
 700:	0000                	unimp
 702:	0501                	addi	a0,a0,0
 704:	0309                	addi	t1,t1,2
 706:	097d                	addi	s2,s2,31
 708:	0006                	c.slli	zero,0x1
 70a:	0901                	addi	s2,s2,0
 70c:	0004                	.2byte	0x4
 70e:	0100                	addi	s0,sp,128
 710:	8701                	c.srai64	a4
 712:	0000                	unimp
 714:	0300                	addi	s0,sp,384
 716:	2200                	fld	fs0,0(a2)
 718:	0000                	unimp
 71a:	0100                	addi	s0,sp,128
 71c:	fb01                	bnez	a4,62c <process_entry+0x210>
 71e:	0d0e                	slli	s10,s10,0x3
 720:	0100                	addi	s0,sp,128
 722:	0101                	addi	sp,sp,0
 724:	0001                	nop
 726:	0000                	unimp
 728:	0001                	nop
 72a:	0100                	addi	s0,sp,128
 72c:	6d76                	ld	s10,344(sp)
 72e:	0000                	unimp
 730:	63656863          	bltu	a0,s6,d60 <process_entry+0x944>
 734:	632e736b          	.4byte	0x632e736b
 738:	0100                	addi	s0,sp,128
 73a:	0000                	unimp
 73c:	0500                	addi	s0,sp,640
 73e:	0001                	nop
 740:	0209                	addi	tp,tp,2 # 2 <_entry+0x2>
 742:	027e                	slli	tp,tp,0x1f
 744:	0000                	unimp
 746:	0000                	unimp
 748:	0000                	unimp
 74a:	05010a03          	lb	s4,80(sp)
 74e:	04020003          	lb	zero,64(tp) # 40 <start+0x24>
 752:	0301                	addi	t1,t1,0
 754:	0901                	addi	s2,s2,0
 756:	0006                	c.slli	zero,0x1
 758:	0001                	nop
 75a:	0402                	c.slli64	s0
 75c:	0301                	addi	t1,t1,0
 75e:	0900                	addi	s0,sp,144
 760:	0000                	unimp
 762:	0501                	addi	a0,a0,0
 764:	0321                	addi	t1,t1,8
 766:	0904                	addi	s1,sp,144
 768:	0002                	c.slli64	zero
 76a:	0501                	addi	a0,a0,0
 76c:	0305                	addi	t1,t1,1
 76e:	0901                	addi	s2,s2,0
 770:	0006                	c.slli	zero,0x1
 772:	0501                	addi	a0,a0,0
 774:	0601                	addi	a2,a2,0
 776:	00090103          	lb	sp,0(s2)
 77a:	0100                	addi	s0,sp,128
 77c:	2005                	.2byte	0x2005
 77e:	0306                	slli	t1,t1,0x1
 780:	0902                	c.slli64	s2
 782:	0008                	.2byte	0x8
 784:	0501                	addi	a0,a0,0
 786:	0305                	addi	t1,t1,1
 788:	0901                	addi	s2,s2,0
 78a:	0006                	c.slli	zero,0x1
 78c:	0501                	addi	a0,a0,0
 78e:	0601                	addi	a2,a2,0
 790:	00090103          	lb	sp,0(s2)
 794:	0100                	addi	s0,sp,128
 796:	0809                	addi	a6,a6,2
 798:	0000                	unimp
 79a:	0101                	addi	sp,sp,0
 79c:	0091                	addi	ra,ra,4
 79e:	0000                	unimp
 7a0:	003d0003          	lb	zero,3(s10)
 7a4:	0000                	unimp
 7a6:	0101                	addi	sp,sp,0
 7a8:	000d0efb          	.4byte	0xd0efb
 7ac:	0101                	addi	sp,sp,0
 7ae:	0101                	addi	sp,sp,0
 7b0:	0000                	unimp
 7b2:	0100                	addi	s0,sp,128
 7b4:	0000                	unimp
 7b6:	7601                	lui	a2,0xfffe0
 7b8:	006d                	c.nop	27
 7ba:	6500                	ld	s0,8(a0)
 7bc:	666c                	ld	a1,200(a2)
 7be:	632e                	ld	t1,200(sp)
 7c0:	0100                	addi	s0,sp,128
 7c2:	0000                	unimp
 7c4:	7974                	ld	a3,240(a0)
 7c6:	6570                	ld	a2,200(a0)
 7c8:	00682e73          	csrrs	t3,0x6,a6
 7cc:	0001                	nop
 7ce:	6500                	ld	s0,8(a0)
 7d0:	666c                	ld	a1,200(a2)
 7d2:	682e                	ld	a6,200(sp)
 7d4:	0100                	addi	s0,sp,128
 7d6:	0000                	unimp
 7d8:	6564                	ld	s1,200(a0)
 7da:	7366                	ld	t1,120(sp)
 7dc:	682e                	ld	a6,200(sp)
 7de:	0100                	addi	s0,sp,128
 7e0:	0000                	unimp
 7e2:	0500                	addi	s0,sp,640
 7e4:	001e                	c.slli	zero,0x7
 7e6:	0209                	addi	tp,tp,2 # 2 <_entry+0x2>
 7e8:	02a2                	slli	t0,t0,0x8
 7ea:	0000                	unimp
 7ec:	0000                	unimp
 7ee:	0000                	unimp
 7f0:	05010b03          	lb	s6,80(sp)
 7f4:	0305                	addi	t1,t1,1
 7f6:	0901                	addi	s2,s2,0
 7f8:	0008                	.2byte	0x8
 7fa:	0301                	addi	t1,t1,0
 7fc:	0901                	addi	s2,s2,0
 7fe:	0000                	unimp
 800:	0301                	addi	t1,t1,0
 802:	0901                	addi	s2,s2,0
 804:	0016                	c.slli	zero,0x5
 806:	0501                	addi	a0,a0,0
 808:	00030607          	.4byte	0x30607
 80c:	0009                	c.nop	2
 80e:	0100                	addi	s0,sp,128
 810:	0505                	addi	a0,a0,1
 812:	0306                	slli	t1,t1,0x1
 814:	0902                	c.slli64	s2
 816:	0010                	.2byte	0x10
 818:	0501                	addi	a0,a0,0
 81a:	0601                	addi	a2,a2,0 # fffffffffffe0000 <ustack+0xfffffffffffcef20>
 81c:	00090103          	lb	sp,0(s2)
 820:	0100                	addi	s0,sp,128
 822:	0905                	addi	s2,s2,1
 824:	0306                	slli	t1,t1,0x1
 826:	097e                	slli	s2,s2,0x1f
 828:	000c                	.2byte	0xc
 82a:	0901                	addi	s2,s2,0
 82c:	000c                	.2byte	0xc
 82e:	0100                	addi	s0,sp,128
 830:	1201                	addi	tp,tp,-32 # ffffffffffffffe0 <ustack+0xfffffffffffeef00>
 832:	03000003          	lb	zero,48(zero) # 30 <start+0x14>
 836:	4c00                	lw	s0,24(s0)
 838:	0000                	unimp
 83a:	0100                	addi	s0,sp,128
 83c:	fb01                	bnez	a4,74c <process_entry+0x330>
 83e:	0d0e                	slli	s10,s10,0x3
 840:	0100                	addi	s0,sp,128
 842:	0101                	addi	sp,sp,0
 844:	0001                	nop
 846:	0000                	unimp
 848:	0001                	nop
 84a:	0100                	addi	s0,sp,128
 84c:	6d76                	ld	s10,344(sp)
 84e:	0000                	unimp
 850:	6e72656b          	.4byte	0x6e72656b
 854:	6c65                	lui	s8,0x19
 856:	632e                	ld	t1,200(sp)
 858:	0100                	addi	s0,sp,128
 85a:	0000                	unimp
 85c:	6972                	ld	s2,280(sp)
 85e:	2e766373          	csrrsi	t1,0x2e7,12
 862:	0068                	addi	a0,sp,12
 864:	0001                	nop
 866:	7400                	ld	s0,40(s0)
 868:	7079                	c.lui	zero,0xffffe
 86a:	7365                	lui	t1,0xffff9
 86c:	682e                	ld	a6,200(sp)
 86e:	0100                	addi	s0,sp,128
 870:	0000                	unimp
 872:	7270                	ld	a2,224(a2)
 874:	682e636f          	jal	t1,e6ef6 <ustack+0xd5e16>
 878:	0100                	addi	s0,sp,128
 87a:	0000                	unimp
 87c:	6564                	ld	s1,200(a0)
 87e:	7366                	ld	t1,120(sp)
 880:	682e                	ld	a6,200(sp)
 882:	0100                	addi	s0,sp,128
 884:	0000                	unimp
 886:	0500                	addi	s0,sp,640
 888:	0014                	.2byte	0x14
 88a:	0209                	addi	tp,tp,2 # 2 <_entry+0x2>
 88c:	02e8                	addi	a0,sp,332
 88e:	0000                	unimp
 890:	0000                	unimp
 892:	0000                	unimp
 894:	05011903          	lh	s2,80(sp)
 898:	0305                	addi	t1,t1,1 # ffffffffffff9001 <ustack+0xfffffffffffe7f21>
 89a:	0901                	addi	s2,s2,0
 89c:	0000                	unimp
 89e:	0501                	addi	a0,a0,0
 8a0:	0608                	addi	a0,sp,768
 8a2:	00090003          	lb	zero,0(s2)
 8a6:	0100                	addi	s0,sp,128
 8a8:	0505                	addi	a0,a0,1
 8aa:	0306                	slli	t1,t1,0x1
 8ac:	00100903          	lb	s2,1(zero) # 1 <_entry+0x1>
 8b0:	0501                	addi	a0,a0,0
 8b2:	0632                	slli	a2,a2,0xc
 8b4:	00090003          	lb	zero,0(s2)
 8b8:	0100                	addi	s0,sp,128
 8ba:	0505                	addi	a0,a0,1
 8bc:	0306                	slli	t1,t1,0x1
 8be:	0901                	addi	s2,s2,0
 8c0:	000a                	c.slli	zero,0x2
 8c2:	0501                	addi	a0,a0,0
 8c4:	0610                	addi	a2,sp,768
 8c6:	00090003          	lb	zero,0(s2)
 8ca:	0100                	addi	s0,sp,128
 8cc:	0505                	addi	a0,a0,1
 8ce:	0306                	slli	t1,t1,0x1
 8d0:	0901                	addi	s2,s2,0
 8d2:	0006                	c.slli	zero,0x1
 8d4:	0501                	addi	a0,a0,0
 8d6:	0632                	slli	a2,a2,0xc
 8d8:	00097e03          	.4byte	0x97e03
 8dc:	0100                	addi	s0,sp,128
 8de:	0105                	addi	sp,sp,1
 8e0:	04090303          	lb	t1,64(s2)
 8e4:	0100                	addi	s0,sp,128
 8e6:	1405                	addi	s0,s0,-31
 8e8:	08097903          	.4byte	0x8097903
 8ec:	0100                	addi	s0,sp,128
 8ee:	0905                	addi	s2,s2,1
 8f0:	0306                	slli	t1,t1,0x1
 8f2:	0902                	c.slli64	s2
 8f4:	0008                	.2byte	0x8
 8f6:	0501                	addi	a0,a0,0
 8f8:	0305                	addi	t1,t1,1
 8fa:	0902                	c.slli64	s2
 8fc:	0010                	.2byte	0x10
 8fe:	0501                	addi	a0,a0,0
 900:	0632                	slli	a2,a2,0xc
 902:	00090003          	lb	zero,0(s2)
 906:	0100                	addi	s0,sp,128
 908:	0505                	addi	a0,a0,1
 90a:	0306                	slli	t1,t1,0x1
 90c:	0901                	addi	s2,s2,0
 90e:	000a                	c.slli	zero,0x2
 910:	0501                	addi	a0,a0,0
 912:	0610                	addi	a2,sp,768
 914:	00090003          	lb	zero,0(s2)
 918:	0100                	addi	s0,sp,128
 91a:	0505                	addi	a0,a0,1
 91c:	0306                	slli	t1,t1,0x1
 91e:	0901                	addi	s2,s2,0
 920:	0006                	c.slli	zero,0x1
 922:	0501                	addi	a0,a0,0
 924:	0632                	slli	a2,a2,0xc
 926:	00097e03          	.4byte	0x97e03
 92a:	0100                	addi	s0,sp,128
 92c:	0105                	addi	sp,sp,1
 92e:	04090303          	lb	t1,64(s2)
 932:	0100                	addi	s0,sp,128
 934:	1805                	addi	a6,a6,-31
 936:	0306                	slli	t1,t1,0x1
 938:	0908                	addi	a0,sp,144
 93a:	000e                	c.slli	zero,0x3
 93c:	0501                	addi	a0,a0,0
 93e:	0305                	addi	t1,t1,1
 940:	0902                	c.slli64	s2
 942:	0006                	c.slli	zero,0x1
 944:	0501                	addi	a0,a0,0
 946:	0606                	slli	a2,a2,0x1
 948:	00090003          	lb	zero,0(s2)
 94c:	0100                	addi	s0,sp,128
 94e:	2d05                	addiw	s10,s10,1
 950:	0a090003          	lb	zero,160(s2)
 954:	0100                	addi	s0,sp,128
 956:	1c05                	addi	s8,s8,-31 # 18fe1 <ustack+0x7f01>
 958:	08090003          	lb	zero,128(s2)
 95c:	0100                	addi	s0,sp,128
 95e:	0505                	addi	a0,a0,1
 960:	0306                	slli	t1,t1,0x1
 962:	00020903          	lb	s2,0(tp) # 0 <_entry>
 966:	0501                	addi	a0,a0,0
 968:	0606                	slli	a2,a2,0x1
 96a:	00090003          	lb	zero,0(s2)
 96e:	0100                	addi	s0,sp,128
 970:	1e05                	addi	t3,t3,-31
 972:	02090003          	lb	zero,32(s2)
 976:	0100                	addi	s0,sp,128
 978:	0505                	addi	a0,a0,1
 97a:	0306                	slli	t1,t1,0x1
 97c:	0901                	addi	s2,s2,0
 97e:	000a                	c.slli	zero,0x2
 980:	0501                	addi	a0,a0,0
 982:	00030617          	auipc	a2,0x30
 986:	0009                	c.nop	2
 988:	0100                	addi	s0,sp,128
 98a:	0204                	addi	s1,sp,256
 98c:	0305                	addi	t1,t1,1
 98e:	0306                	slli	t1,t1,0x1
 990:	0192                	slli	gp,gp,0x4
 992:	0209                	addi	tp,tp,2 # 2 <_entry+0x2>
 994:	0100                	addi	s0,sp,128
 996:	0104                	addi	s1,sp,128
 998:	0505                	addi	a0,a0,1
 99a:	097ef103          	.4byte	0x97ef103
 99e:	0006                	c.slli	zero,0x1
 9a0:	0401                	addi	s0,s0,0
 9a2:	0502                	c.slli64	a0
 9a4:	02960303          	lb	t1,41(a2) # 309ab <ustack+0x1f8cb>
 9a8:	0009                	c.nop	2
 9aa:	0100                	addi	s0,sp,128
 9ac:	00090103          	lb	sp,0(s2)
 9b0:	0100                	addi	s0,sp,128
 9b2:	02090103          	lb	sp,32(s2)
 9b6:	0100                	addi	s0,sp,128
 9b8:	0104                	addi	s1,sp,128
 9ba:	2005                	.2byte	0x2005
 9bc:	0306                	slli	t1,t1,0x1
 9be:	7de8                	ld	a0,248(a1)
 9c0:	0009                	c.nop	2
 9c2:	0100                	addi	s0,sp,128
 9c4:	0505                	addi	a0,a0,1
 9c6:	0306                	slli	t1,t1,0x1
 9c8:	00020903          	lb	s2,0(tp) # 0 <_entry>
 9cc:	0401                	addi	s0,s0,0
 9ce:	0502                	c.slli64	a0
 9d0:	091a0303          	lb	t1,145(s4)
 9d4:	0000                	unimp
 9d6:	0301                	addi	t1,t1,0
 9d8:	0901                	addi	s2,s2,0
 9da:	0000                	unimp
 9dc:	0301                	addi	t1,t1,0
 9de:	0901                	addi	s2,s2,0
 9e0:	0004                	.2byte	0x4
 9e2:	0401                	addi	s0,s0,0
 9e4:	0501                	addi	a0,a0,0
 9e6:	0305                	addi	t1,t1,1
 9e8:	0965                	addi	s2,s2,25
 9ea:	0000                	unimp
 9ec:	0501                	addi	a0,a0,0
 9ee:	00030607          	.4byte	0x30607
 9f2:	0009                	c.nop	2
 9f4:	0100                	addi	s0,sp,128
 9f6:	0505                	addi	a0,a0,1
 9f8:	0306                	slli	t1,t1,0x1
 9fa:	0901                	addi	s2,s2,0
 9fc:	0004                	.2byte	0x4
 9fe:	0301                	addi	t1,t1,0
 a00:	0901                	addi	s2,s2,0
 a02:	0000                	unimp
 a04:	0401                	addi	s0,s0,0
 a06:	0502                	c.slli64	a0
 a08:	091f0303          	lb	t1,145(t5)
 a0c:	0000                	unimp
 a0e:	0401                	addi	s0,s0,0
 a10:	0501                	addi	a0,a0,0
 a12:	60030607          	.4byte	0x60030607
 a16:	0009                	c.nop	2
 a18:	0100                	addi	s0,sp,128
 a1a:	0204                	addi	s1,sp,256
 a1c:	0305                	addi	t1,t1,1
 a1e:	04092003          	lw	zero,64(s2)
 a22:	0100                	addi	s0,sp,128
 a24:	0104                	addi	s1,sp,128
 a26:	0505                	addi	a0,a0,1
 a28:	0306                	slli	t1,t1,0x1
 a2a:	0964                	addi	s1,sp,156
 a2c:	0004                	.2byte	0x4
 a2e:	0401                	addi	s0,s0,0
 a30:	0502                	c.slli64	a0
 a32:	00d80303          	lb	t1,13(a6)
 a36:	0009                	c.nop	2
 a38:	0100                	addi	s0,sp,128
 a3a:	0104                	addi	s1,sp,128
 a3c:	2005                	.2byte	0x2005
 a3e:	0306                	slli	t1,t1,0x1
 a40:	7fa8                	ld	a0,120(a5)
 a42:	0009                	c.nop	2
 a44:	0100                	addi	s0,sp,128
 a46:	0204                	addi	s1,sp,256
 a48:	0305                	addi	t1,t1,1
 a4a:	0900d803          	lhu	a6,144(ra)
 a4e:	0002                	c.slli64	zero
 a50:	0401                	addi	s0,s0,0
 a52:	0501                	addi	a0,a0,0
 a54:	0605                	addi	a2,a2,1
 a56:	097faa03          	lw	s4,151(t6)
 a5a:	0006                	c.slli	zero,0x1
 a5c:	0501                	addi	a0,a0,0
 a5e:	0601                	addi	a2,a2,0
 a60:	04090103          	lb	sp,64(s2)
 a64:	0100                	addi	s0,sp,128
 a66:	1505                	addi	a0,a0,-31
 a68:	0306                	slli	t1,t1,0x1
 a6a:	0965                	addi	s2,s2,25
 a6c:	0006                	c.slli	zero,0x1
 a6e:	0501                	addi	a0,a0,0
 a70:	09020303          	lb	t1,144(tp) # 90 <ramdiskrw+0xe>
 a74:	0008                	.2byte	0x8
 a76:	0401                	addi	s0,s0,0
 a78:	0302                	c.slli64	t1
 a7a:	00f4                	addi	a3,sp,76
 a7c:	0009                	c.nop	2
 a7e:	0100                	addi	s0,sp,128
 a80:	00090103          	lb	sp,0(s2)
 a84:	0100                	addi	s0,sp,128
 a86:	04090103          	lb	sp,64(s2)
 a8a:	0100                	addi	s0,sp,128
 a8c:	0104                	addi	s1,sp,128
 a8e:	1f05                	addi	t5,t5,-31
 a90:	0306                	slli	t1,t1,0x1
 a92:	7f8a                	ld	t6,160(sp)
 a94:	0009                	c.nop	2
 a96:	0100                	addi	s0,sp,128
 a98:	1405                	addi	s0,s0,-31
 a9a:	02090003          	lb	zero,32(s2)
 a9e:	0100                	addi	s0,sp,128
 aa0:	0305                	addi	t1,t1,1
 aa2:	0306                	slli	t1,t1,0x1
 aa4:	0901                	addi	s2,s2,0
 aa6:	000a                	c.slli	zero,0x2
 aa8:	0501                	addi	a0,a0,0
 aaa:	0601                	addi	a2,a2,0
 aac:	08090103          	lb	sp,128(s2)
 ab0:	0100                	addi	s0,sp,128
 ab2:	1b05                	addi	s6,s6,-31
 ab4:	0306                	slli	t1,t1,0x1
 ab6:	091a                	slli	s2,s2,0x6
 ab8:	0008                	.2byte	0x8
 aba:	0501                	addi	a0,a0,0
 abc:	0305                	addi	t1,t1,1
 abe:	0902                	c.slli64	s2
 ac0:	0008                	.2byte	0x8
 ac2:	0501                	addi	a0,a0,0
 ac4:	00030627          	.4byte	0x30627
 ac8:	0009                	c.nop	2
 aca:	0100                	addi	s0,sp,128
 acc:	1105                	addi	sp,sp,-31
 ace:	08090003          	lb	zero,128(s2)
 ad2:	0100                	addi	s0,sp,128
 ad4:	0505                	addi	a0,a0,1
 ad6:	0306                	slli	t1,t1,0x1
 ad8:	000a0903          	lb	s2,0(s4)
 adc:	0501                	addi	a0,a0,0
 ade:	0616                	slli	a2,a2,0x5
 ae0:	00090003          	lb	zero,0(s2)
 ae4:	0100                	addi	s0,sp,128
 ae6:	0505                	addi	a0,a0,1
 ae8:	0306                	slli	t1,t1,0x1
 aea:	000a0903          	lb	s2,0(s4)
 aee:	0501                	addi	a0,a0,0
 af0:	0615                	addi	a2,a2,5
 af2:	00090003          	lb	zero,0(s2)
 af6:	0100                	addi	s0,sp,128
 af8:	2605                	addiw	a2,a2,1
 afa:	02090003          	lb	zero,32(s2)
 afe:	0100                	addi	s0,sp,128
 b00:	1505                	addi	a0,a0,-31
 b02:	08090003          	lb	zero,128(s2)
 b06:	0100                	addi	s0,sp,128
 b08:	0505                	addi	a0,a0,1
 b0a:	0306                	slli	t1,t1,0x1
 b0c:	00020903          	lb	s2,0(tp) # 0 <_entry>
 b10:	0501                	addi	a0,a0,0
 b12:	0601                	addi	a2,a2,0
 b14:	08090103          	lb	sp,128(s2)
 b18:	0100                	addi	s0,sp,128
 b1a:	1905                	addi	s2,s2,-31
 b1c:	0306                	slli	t1,t1,0x1
 b1e:	0902                	c.slli64	s2
 b20:	0008                	.2byte	0x8
 b22:	0501                	addi	a0,a0,0
 b24:	09010303          	lb	t1,144(sp)
 b28:	0008                	.2byte	0x8
 b2a:	0001                	nop
 b2c:	0402                	c.slli64	s0
 b2e:	0301                	addi	t1,t1,0
 b30:	00080903          	lb	s2,0(a6)
 b34:	0501                	addi	a0,a0,0
 b36:	0009                	c.nop	2
 b38:	0402                	c.slli64	s0
 b3a:	0301                	addi	t1,t1,0
 b3c:	0900                	addi	s0,sp,144
 b3e:	0000                	unimp
 b40:	0901                	addi	s2,s2,0
 b42:	0002                	c.slli64	zero
 b44:	0100                	addi	s0,sp,128
 b46:	5101                	li	sp,-32
 b48:	0000                	unimp
 b4a:	0300                	addi	s0,sp,384
 b4c:	2000                	fld	fs0,0(s0)
 b4e:	0000                	unimp
 b50:	0100                	addi	s0,sp,128
 b52:	fb01                	bnez	a4,a62 <process_entry+0x646>
 b54:	0d0e                	slli	s10,s10,0x3
 b56:	0100                	addi	s0,sp,128
 b58:	0101                	addi	sp,sp,0
 b5a:	0001                	nop
 b5c:	0000                	unimp
 b5e:	0001                	nop
 b60:	0100                	addi	s0,sp,128
 b62:	6d76                	ld	s10,344(sp)
 b64:	0000                	unimp
 b66:	7375                	lui	t1,0xffffd
 b68:	7265                	lui	tp,0xffff9
 b6a:	632e                	ld	t1,200(sp)
 b6c:	0100                	addi	s0,sp,128
 b6e:	0000                	unimp
 b70:	0500                	addi	s0,sp,640
 b72:	001a                	c.slli	zero,0x6
 b74:	0209                	addi	tp,tp,2 # ffffffffffff9002 <ustack+0xfffffffffffe7f22>
 b76:	041c                	addi	a5,sp,512
 b78:	0000                	unimp
 b7a:	0000                	unimp
 b7c:	0000                	unimp
 b7e:	0501                	addi	a0,a0,0
 b80:	09010303          	lb	t1,144(sp)
 b84:	0006                	c.slli	zero,0x1
 b86:	0301                	addi	t1,t1,0 # ffffffffffffd000 <ustack+0xfffffffffffebf20>
 b88:	0901                	addi	s2,s2,0
 b8a:	0004                	.2byte	0x4
 b8c:	0501                	addi	a0,a0,0
 b8e:	0601                	addi	a2,a2,0
 b90:	04090103          	lb	sp,64(s2)
 b94:	0100                	addi	s0,sp,128
 b96:	0609                	addi	a2,a2,2
 b98:	0000                	unimp
 b9a:	0101                	addi	sp,sp,0

Disassembly of section .debug_str:

0000000000000000 <.debug_str>:
   0:	69735f77          	.4byte	0x69735f77
   4:	0065                	c.nop	25
   6:	61735f77          	.4byte	0x61735f77
   a:	7074                	ld	a3,224(s0)
   c:	6b00                	ld	s0,16(a4)
   e:	7265                	lui	tp,0xffff9
  10:	656e                	ld	a0,216(sp)
  12:	5f6c                	lw	a1,124(a4)
  14:	6e65                	lui	t3,0x19
  16:	7274                	ld	a3,224(a2)
  18:	0079                	c.nop	30
  1a:	6975                	lui	s2,0x1d
  1c:	746e                	ld	s0,248(sp)
  1e:	3436                	fld	fs0,360(sp)
  20:	6100                	ld	s0,0(a0)
  22:	72657373          	csrrci	t1,mhpmevent6h,10
  26:	5f74                	lw	a3,124(a4)
  28:	696c                	ld	a1,208(a0)
  2a:	6b6e                	ld	s6,216(sp)
  2c:	7265                	lui	tp,0xffff9
  2e:	735f 6d79 6f62      	.byte	0x5f, 0x73, 0x79, 0x6d, 0x62, 0x6f
  34:	736c                	ld	a1,224(a4)
  36:	7200                	ld	s0,32(a2)
  38:	6d5f 6168 7472      	.byte	0x5f, 0x6d, 0x68, 0x61, 0x72, 0x74
  3e:	6469                	lui	s0,0x1a
  40:	7600                	ld	s0,40(a2)
  42:	2f6d                	addiw	t5,t5,27
  44:	72617473          	csrrci	s0,mhpmevent6h,2
  48:	2e74                	fld	fa3,216(a2)
  4a:	6e750063          	beq	a0,t2,72a <process_entry+0x30e>
  4e:	6e676973          	csrrsi	s2,0x6e6,14
  52:	6465                	lui	s0,0x19
  54:	6320                	ld	s0,64(a4)
  56:	6168                	ld	a0,192(a0)
  58:	0072                	c.slli	zero,0x1c
  5a:	5f72                	lw	t5,60(sp)
  5c:	00656973          	csrrsi	s2,0x6,10
  60:	6f6c                	ld	a1,216(a4)
  62:	676e                	ld	a4,216(sp)
  64:	7520                	ld	s0,104(a0)
  66:	736e                	ld	t1,248(sp)
  68:	6769                	lui	a4,0x1a
  6a:	656e                	ld	a0,216(sp)
  6c:	2064                	fld	fs1,192(s0)
  6e:	6e69                	lui	t3,0x1a
  70:	0074                	addi	a3,sp,12
  72:	726f6873          	csrrsi	a6,mhpmevent6h,30
  76:	2074                	fld	fa3,192(s0)
  78:	6e75                	lui	t3,0x1d
  7a:	6e676973          	csrrsi	s2,0x6e6,14
  7e:	6465                	lui	s0,0x19
  80:	6920                	ld	s0,80(a0)
  82:	746e                	ld	s0,248(sp)
  84:	4700                	lw	s0,8(a4)
  86:	554e                	lw	a0,240(sp)
  88:	4320                	lw	s0,64(a4)
  8a:	3731                	addiw	a4,a4,-20 # 19fec <ustack+0x8f0c>
  8c:	3120                	fld	fs0,96(a0)
  8e:	2e32                	fld	ft8,264(sp)
  90:	2e32                	fld	ft8,264(sp)
  92:	2030                	fld	fa2,64(s0)
  94:	6d2d                	lui	s10,0xb
  96:	646f6d63          	bltu	t5,t1,6f0 <process_entry+0x2d4>
  9a:	6c65                	lui	s8,0x19
  9c:	6d3d                	lui	s10,0xf
  9e:	6465                	lui	s0,0x19
  a0:	6e61                	lui	t3,0x18
  a2:	2079                	.2byte	0x2079
  a4:	6d2d                	lui	s10,0xb
  a6:	6f6e                	ld	t5,216(sp)
  a8:	722d                	lui	tp,0xfffeb
  aa:	6c65                	lui	s8,0x19
  ac:	7861                	lui	a6,0xffff8
  ae:	2d20                	fld	fs0,88(a0)
  b0:	746d                	lui	s0,0xffffb
  b2:	6e75                	lui	t3,0x1d
  b4:	3d65                	addiw	s10,s10,-7 # aff9 <kstack+0x1f19>
  b6:	6f72                	ld	t5,280(sp)
  b8:	74656b63          	bltu	a0,t1,80e <process_entry+0x3f2>
  bc:	2d20                	fld	fs0,88(a0)
  be:	616d                	addi	sp,sp,240
  c0:	6962                	ld	s2,24(sp)
  c2:	6c3d                	lui	s8,0xf
  c4:	3670                	fld	fa2,232(a2)
  c6:	6434                	ld	a3,72(s0)
  c8:	2d20                	fld	fs0,88(a0)
  ca:	696d                	lui	s2,0x1b
  cc:	732d6173          	csrrsi	sp,mhpmevent18h,26
  d0:	6570                	ld	a2,200(a0)
  d2:	2e323d63          	.4byte	0x2e323d63
  d6:	2032                	fld	ft0,264(sp)
  d8:	6d2d                	lui	s10,0xb
  da:	7261                	lui	tp,0xffff8
  dc:	723d6863          	bltu	s10,gp,80c <process_entry+0x3f0>
  e0:	3676                	fld	fa2,376(sp)
  e2:	6934                	ld	a3,80(a0)
  e4:	616d                	addi	sp,sp,240
  e6:	6466                	ld	s0,88(sp)
  e8:	672d2063          	.4byte	0x672d2063
  ec:	20626467          	.4byte	0x20626467
  f0:	672d                	lui	a4,0xb
  f2:	7764                	ld	s1,232(a4)
  f4:	7261                	lui	tp,0xffff8
  f6:	2d66                	fld	fs10,88(sp)
  f8:	2032                	fld	ft0,264(sp)
  fa:	4f2d                	li	t5,11
  fc:	2d20                	fld	fs0,88(a0)
  fe:	6e66                	ld	t3,88(sp)
 100:	6d6f2d6f          	jal	s10,f27d6 <ustack+0xe16f6>
 104:	7469                	lui	s0,0xffffa
 106:	662d                	lui	a2,0xb
 108:	6172                	ld	sp,280(sp)
 10a:	656d                	lui	a0,0x1b
 10c:	702d                	c.lui	zero,0xfffeb
 10e:	746e696f          	jal	s2,e6854 <ustack+0xd5774>
 112:	7265                	lui	tp,0xffff9
 114:	2d20                	fld	fs0,88(a0)
 116:	6666                	ld	a2,88(sp)
 118:	6572                	ld	a0,280(sp)
 11a:	7365                	lui	t1,0xffff9
 11c:	6174                	ld	a3,192(a0)
 11e:	646e                	ld	s0,216(sp)
 120:	6e69                	lui	t3,0x1a
 122:	662d2067          	.4byte	0x662d2067
 126:	6f6e                	ld	t5,216(sp)
 128:	632d                	lui	t1,0xb
 12a:	6f6d6d6f          	jal	s10,d6820 <ustack+0xc5740>
 12e:	206e                	fld	ft0,216(sp)
 130:	662d                	lui	a2,0xb
 132:	6f6e                	ld	t5,216(sp)
 134:	732d                	lui	t1,0xfffeb
 136:	6174                	ld	a3,192(a0)
 138:	702d6b63          	bltu	s10,sp,84e <process_entry+0x432>
 13c:	6f72                	ld	t5,280(sp)
 13e:	6574                	ld	a3,200(a0)
 140:	726f7463          	bgeu	t5,t1,868 <process_entry+0x44c>
 144:	2d20                	fld	fs0,88(a0)
 146:	6e66                	ld	t3,88(sp)
 148:	69702d6f          	jal	s10,2fde <stack0+0x1fce>
 14c:	0065                	c.nop	25
 14e:	63617473          	csrrci	s0,0x636,2
 152:	7300306b          	.4byte	0x7300306b
 156:	6174                	ld	a3,192(a0)
 158:	7472                	ld	s0,312(sp)
 15a:	7200                	ld	s0,32(a2)
 15c:	6d5f 7473 7461      	.byte	0x5f, 0x6d, 0x73, 0x74, 0x61, 0x74
 162:	7375                	lui	t1,0xffffd
 164:	7700                	ld	s0,40(a4)
 166:	745f 0070 6f6c      	.byte	0x5f, 0x74, 0x70, 0x00, 0x6c, 0x6f
 16c:	676e                	ld	a4,216(sp)
 16e:	6c20                	ld	s0,88(s0)
 170:	20676e6f          	jal	t3,76376 <ustack+0x65296>
 174:	6e69                	lui	t3,0x1a
 176:	0074                	addi	a3,sp,12
 178:	656d5f77          	.4byte	0x656d5f77
 17c:	6564                	ld	s1,200(a0)
 17e:	656c                	ld	a1,200(a0)
 180:	5f770067          	jr	1527(a4) # b5f7 <kstack+0x2517>
 184:	736d                	lui	t1,0xffffb
 186:	6174                	ld	a3,192(a0)
 188:	7574                	ld	a3,232(a0)
 18a:	6f6c0073          	.4byte	0x6f6c0073
 18e:	676e                	ld	a4,216(sp)
 190:	6420                	ld	s0,72(s0)
 192:	6c62756f          	jal	a0,27858 <ustack+0x16778>
 196:	0065                	c.nop	25
 198:	6573552f          	.4byte	0x6573552f
 19c:	7372                	ld	t1,312(sp)
 19e:	6761792f          	.4byte	0x6761792f
 1a2:	6161                	addi	sp,sp,80
 1a4:	6761792f          	.4byte	0x6761792f
 1a8:	6161                	addi	sp,sp,80
 1aa:	2f746967          	.4byte	0x2f746967
 1ae:	6461                	lui	s0,0x18
 1b0:	2d76                	fld	fs10,344(sp)
 1b2:	612f736f          	jal	t1,f77c4 <ustack+0xe66e4>
 1b6:	632f3473          	csrrc	s0,0x632,t5
 1ba:	33356573          	csrrsi	a0,mhpmevent19,10
 1be:	2d36                	fld	fs10,328(sp)
 1c0:	6572                	ld	a0,280(sp)
 1c2:	656c                	ld	a1,200(a0)
 1c4:	7361                	lui	t1,0xffff8
 1c6:	0065                	c.nop	25
 1c8:	656d5f77          	.4byte	0x656d5f77
 1cc:	6370                	ld	a2,192(a4)
 1ce:	7700                	ld	s0,40(a4)
 1d0:	6d5f 6469 6c65      	.byte	0x5f, 0x6d, 0x69, 0x64, 0x65, 0x6c
 1d6:	6765                	lui	a4,0x19
 1d8:	6d00                	ld	s0,24(a0)
 1da:	6d65                	lui	s10,0x19
 1dc:	6f6d                	lui	t5,0x1b
 1de:	6576                	ld	a0,344(sp)
 1e0:	6200                	ld	s0,0(a2)
 1e2:	6f6c                	ld	a1,216(a4)
 1e4:	6f6e6b63          	bltu	t3,s6,8da <process_entry+0x4be>
 1e8:	7500                	ld	s0,40(a0)
 1ea:	6e69                	lui	t3,0x1a
 1ec:	0074                	addi	a3,sp,12
 1ee:	6170                	ld	a2,192(a0)
 1f0:	696e                	ld	s2,216(sp)
 1f2:	69640063          	beq	s0,s6,872 <process_entry+0x456>
 1f6:	64616b73          	csrrsi	s6,0x646,2
 1fa:	7264                	ld	s1,224(a2)
 1fc:	6400                	ld	s0,8(s0)
 1fe:	7461                	lui	s0,0xffff8
 200:	0061                	c.nop	24
 202:	6375                	lui	t1,0x1d
 204:	6168                	ld	a0,192(a0)
 206:	0072                	c.slli	zero,0x1c
 208:	6172                	ld	sp,280(sp)
 20a:	646d                	lui	s0,0x1b
 20c:	7369                	lui	t1,0xffffa
 20e:	0077726b          	.4byte	0x77726b
 212:	6d76                	ld	s10,344(sp)
 214:	6d61722f          	.4byte	0x6d61722f
 218:	6964                	ld	s1,208(a0)
 21a:	632e6b73          	csrrsi	s6,0x632,28
 21e:	6400                	ld	s0,8(s0)
 220:	7369                	lui	t1,0xffffa
 222:	6572006b          	.4byte	0x6572006b
 226:	6366                	ld	t1,88(sp)
 228:	746e                	ld	s0,248(sp)
 22a:	7600                	ld	s0,40(a2)
 22c:	6c61                	lui	s8,0x18
 22e:	6469                	lui	s0,0x1a
 230:	6e00                	ld	s0,24(a2)
 232:	7865                	lui	a6,0xffff9
 234:	0074                	addi	a3,sp,12
 236:	7270                	ld	a2,224(a2)
 238:	7665                	lui	a2,0xffff9
 23a:	6d00                	ld	s0,24(a0)
 23c:	6d65                	lui	s10,0x19
 23e:	00706d63          	bltu	zero,t2,258 <strlen+0x4>
 242:	6e727473          	csrrci	s0,0x6e7,4
 246:	00797063          	bgeu	s2,t2,246 <safestrcpy+0x24>
 24a:	656d                	lui	a0,0x1b
 24c:	636d                	lui	t1,0x1b
 24e:	7970                	ld	a2,240(a0)
 250:	7300                	ld	s0,32(a4)
 252:	6661                	lui	a2,0x18
 254:	7365                	lui	t1,0xffff9
 256:	7274                	ld	a3,224(a2)
 258:	00797063          	bgeu	s2,t2,258 <strlen+0x4>
 25c:	6c727473          	csrrci	s0,0x6c7,4
 260:	6e65                	lui	t3,0x19
 262:	7600                	ld	s0,40(a2)
 264:	2f6d                	addiw	t5,t5,27 # 1b01b <ustack+0x9f3b>
 266:	69727473          	csrrci	s0,0x697,4
 26a:	676e                	ld	a4,216(sp)
 26c:	632e                	ld	t1,200(sp)
 26e:	6d00                	ld	s0,24(a0)
 270:	6d65                	lui	s10,0x19
 272:	00746573          	csrrsi	a0,0x7,8
 276:	6e727473          	csrrci	s0,0x6e7,4
 27a:	00706d63          	bltu	zero,t2,294 <assert_stack_address>
 27e:	74736463          	bltu	t1,t2,9c6 <process_entry+0x5aa>
 282:	6100                	ld	s0,0(a0)
 284:	72657373          	csrrci	t1,mhpmevent6h,10
 288:	5f74                	lw	a3,124(a4)
 28a:	63617473          	csrrci	s0,0x636,2
 28e:	64615f6b          	.4byte	0x64615f6b
 292:	7264                	ld	s1,224(a2)
 294:	7365                	lui	t1,0xffff9
 296:	6d760073          	.4byte	0x6d760073
 29a:	6568632f          	.4byte	0x6568632f
 29e:	2e736b63          	bltu	t1,t2,594 <process_entry+0x178>
 2a2:	68700063          	beq	zero,t2,922 <process_entry+0x506>
 2a6:	756e                	ld	a0,248(sp)
 2a8:	006d                	c.nop	27
 2aa:	6865                	lui	a6,0x19
 2ac:	657a6973          	csrrsi	s2,0x657,20
 2b0:	7000                	ld	s0,32(s0)
 2b2:	6f68                	ld	a0,216(a4)
 2b4:	6666                	ld	a2,88(sp)
 2b6:	7000                	ld	s0,32(s0)
 2b8:	6568                	ld	a0,200(a0)
 2ba:	746e                	ld	s0,248(sp)
 2bc:	657a6973          	csrrsi	s2,0x657,20
 2c0:	7600                	ld	s0,40(a2)
 2c2:	7265                	lui	tp,0xffff9
 2c4:	6e6f6973          	csrrsi	s2,0x6e6,30
 2c8:	7300                	ld	s0,32(a4)
 2ca:	6568                	ld	a0,200(a0)
 2cc:	746e                	ld	s0,248(sp)
 2ce:	657a6973          	csrrsi	s2,0x657,20
 2d2:	6600                	ld	s0,8(a2)
 2d4:	616c                	ld	a1,192(a0)
 2d6:	72007367          	.4byte	0x72007367
 2da:	6165                	addi	sp,sp,112
 2dc:	5f64                	lw	s1,124(a4)
 2de:	6e72656b          	.4byte	0x6e72656b
 2e2:	6c65                	lui	s8,0x19
 2e4:	655f 666c 7300      	.byte	0x5f, 0x65, 0x6c, 0x66, 0x00, 0x73
 2ea:	6e68                	ld	a0,216(a2)
 2ec:	6d75                	lui	s10,0x1d
 2ee:	7500                	ld	s0,40(a0)
 2f0:	726f6873          	csrrsi	a6,mhpmevent6h,30
 2f4:	0074                	addi	a3,sp,12
 2f6:	74736873          	csrrsi	a6,0x747,6
 2fa:	6e72                	ld	t3,280(sp)
 2fc:	7864                	ld	s1,240(s0)
 2fe:	7600                	ld	s0,40(a2)
 300:	2f6d                	addiw	t5,t5,27
 302:	6c65                	lui	s8,0x19
 304:	2e66                	fld	ft8,88(sp)
 306:	6c650063          	beq	a0,t1,9c6 <process_entry+0x5aa>
 30a:	6866                	ld	a6,88(sp)
 30c:	7264                	ld	s1,224(a2)
 30e:	7400                	ld	s0,40(s0)
 310:	7079                	c.lui	zero,0xffffe
 312:	0065                	c.nop	25
 314:	616d                	addi	sp,sp,240
 316:	6e696863          	bltu	s2,t1,a06 <process_entry+0x5ea>
 31a:	0065                	c.nop	25
 31c:	616d                	addi	sp,sp,240
 31e:	00636967          	.4byte	0x636967
 322:	666f6873          	csrrsi	a6,0x666,30
 326:	0066                	c.slli	zero,0x19
 328:	74735f77          	.4byte	0x74735f77
 32c:	6576                	ld	a0,344(sp)
 32e:	73750063          	beq	a0,s7,a4e <process_entry+0x632>
 332:	6174                	ld	a3,192(a0)
 334:	53006b63          	bltu	zero,a6,86a <process_entry+0x44e>
 338:	454c                	lw	a1,12(a0)
 33a:	5045                	c.li	zero,-15
 33c:	4e49                	li	t3,18
 33e:	55520047          	.4byte	0x55520047
 342:	4e4e                	lw	t3,208(sp)
 344:	4241                	li	tp,16
 346:	454c                	lw	a1,12(a0)
 348:	5a00                	lw	s0,48(a2)
 34a:	49424d4f          	fnmadd.s	fs10,ft4,fs4,fs1,rmm
 34e:	0045                	c.nop	17
 350:	5f72                	lw	t5,60(sp)
 352:	7074                	ld	a3,224(s0)
 354:	7200                	ld	s0,32(a2)
 356:	735f 7473 7461      	.byte	0x5f, 0x73, 0x73, 0x74, 0x61, 0x74
 35c:	7375                	lui	t1,0xffffd
 35e:	7000                	ld	s0,32(s0)
 360:	7261                	lui	tp,0xffff8
 362:	6e65                	lui	t3,0x19
 364:	0074                	addi	a3,sp,12
 366:	6c6c696b          	.4byte	0x6c6c696b
 36a:	6465                	lui	s0,0x19
 36c:	7500                	ld	s0,40(a0)
 36e:	74726573          	csrrsi	a0,0x747,4
 372:	6172                	ld	sp,280(sp)
 374:	0070                	addi	a2,sp,12
 376:	6e72656b          	.4byte	0x6e72656b
 37a:	6c65                	lui	s8,0x19
 37c:	735f 0070 6f63      	.byte	0x5f, 0x73, 0x70, 0x00, 0x63, 0x6f
 382:	746e                	ld	s0,248(sp)
 384:	7865                	lui	a6,0xffff9
 386:	0074                	addi	a3,sp,12
 388:	616e                	ld	sp,216(sp)
 38a:	656d                	lui	a0,0x1b
 38c:	6b00                	ld	s0,16(a4)
 38e:	7265                	lui	tp,0xffff9
 390:	656e                	ld	a0,216(sp)
 392:	5f6c                	lw	a1,124(a4)
 394:	6168                	ld	a0,192(a0)
 396:	7472                	ld	s0,312(sp)
 398:	6469                	lui	s0,0x1a
 39a:	7000                	ld	s0,32(s0)
 39c:	6f72                	ld	t5,280(sp)
 39e:	72630063          	beq	t1,t1,abe <process_entry+0x6a2>
 3a2:	6165                	addi	sp,sp,112
 3a4:	6574                	ld	a3,200(a0)
 3a6:	705f 6f72 6563      	.byte	0x5f, 0x70, 0x72, 0x6f, 0x63, 0x65
 3ac:	6b007373          	csrrci	t1,0x6b0,0
 3b0:	63617473          	csrrci	s0,0x636,2
 3b4:	6863006b          	.4byte	0x6863006b
 3b8:	6e61                	lui	t3,0x18
 3ba:	5200                	lw	s0,32(a2)
 3bc:	4e55                	li	t3,21
 3be:	494e                	lw	s2,208(sp)
 3c0:	474e                	lw	a4,208(sp)
 3c2:	6b00                	ld	s0,16(a4)
 3c4:	7265                	lui	tp,0xffff9
 3c6:	656e                	ld	a0,216(sp)
 3c8:	5f6c                	lw	a1,124(a4)
 3ca:	70746173          	csrrsi	sp,0x707,8
 3ce:	7400                	ld	s0,40(s0)
 3d0:	6172                	ld	sp,280(sp)
 3d2:	6670                	ld	a2,200(a2)
 3d4:	6172                	ld	sp,280(sp)
 3d6:	656d                	lui	a0,0x1b
 3d8:	6100                	ld	s0,0(a0)
 3da:	6c6c                	ld	a1,216(s0)
 3dc:	705f636f          	jal	t1,f72e0 <ustack+0xe6200>
 3e0:	6761                	lui	a4,0x18
 3e2:	7365                	lui	t1,0xffff9
 3e4:	5500                	lw	s0,40(a0)
 3e6:	554e                	lw	a0,240(sp)
 3e8:	00444553          	fadd.s	fa0,fs0,ft4,rmm
 3ec:	65735f77          	.4byte	0x65735f77
 3f0:	6370                	ld	a2,192(a4)
 3f2:	7700                	ld	s0,40(a4)
 3f4:	735f 7473 7461      	.byte	0x5f, 0x73, 0x73, 0x74, 0x61, 0x74
 3fa:	7375                	lui	t1,0xffffd
 3fc:	7200                	ld	s0,32(a2)
 3fe:	735f 7065 0063      	.byte	0x5f, 0x73, 0x65, 0x70, 0x63, 0x00
 404:	7270                	ld	a2,224(a2)
 406:	7365636f          	jal	t1,56b3c <ustack+0x45a5c>
 40a:	6e655f73          	csrrwi	t5,0x6e6,10
 40e:	7274                	ld	a3,224(a2)
 410:	0079                	c.nop	30
 412:	7375                	lui	t1,0xffffd
 414:	7265                	lui	tp,0xffff9
 416:	7274                	ld	a3,224(a2)
 418:	7061                	c.lui	zero,0xffff8
 41a:	6572                	ld	a0,280(sp)
 41c:	0074                	addi	a3,sp,12
 41e:	6e72656b          	.4byte	0x6e72656b
 422:	6c65                	lui	s8,0x19
 424:	745f 6172 0070      	.byte	0x5f, 0x74, 0x72, 0x61, 0x70, 0x00
 42a:	6170                	ld	a2,192(a0)
 42c:	61746567          	.4byte	0x61746567
 430:	6c62                	ld	s8,24(sp)
 432:	0065                	c.nop	25
 434:	7378                	ld	a4,224(a4)
 436:	6174                	ld	a3,192(a0)
 438:	6574                	ld	a3,200(a0)
 43a:	7000                	ld	s0,32(s0)
 43c:	6f72                	ld	t5,280(sp)
 43e:	61747363          	bgeu	s0,s7,a44 <process_entry+0x628>
 442:	6574                	ld	a3,200(a0)
 444:	7600                	ld	s0,40(a2)
 446:	2f6d                	addiw	t5,t5,27
 448:	6e72656b          	.4byte	0x6e72656b
 44c:	6c65                	lui	s8,0x19
 44e:	632e                	ld	t1,200(sp)
 450:	7000                	ld	s0,32(s0)
 452:	6761                	lui	a4,0x18
 454:	7465                	lui	s0,0xffff9
 456:	6261                	lui	tp,0x18
 458:	656c                	ld	a1,200(a0)
 45a:	745f 6b00 6c61      	.byte	0x5f, 0x74, 0x00, 0x6b, 0x61, 0x6c
 460:	6f6c                	ld	a1,216(a4)
 462:	6d760063          	beq	a2,s7,b22 <process_entry+0x706>
 466:	6573752f          	.4byte	0x6573752f
 46a:	2e72                	fld	ft8,280(sp)
 46c:	63 00             	Address 0x000000000000046c is out of bounds.


Disassembly of section .debug_frame:

0000000000000000 <.debug_frame>:
   0:	000c                	.2byte	0xc
   2:	0000                	unimp
   4:	ffff                	.2byte	0xffff
   6:	ffff                	.2byte	0xffff
   8:	7c010003          	lb	zero,1984(sp)
   c:	0d01                	addi	s10,s10,0 # 1d000 <ustack+0xbf20>
   e:	0002                	c.slli64	zero
  10:	002c                	addi	a1,sp,8
  12:	0000                	unimp
  14:	0000                	unimp
  16:	0000                	unimp
  18:	001c                	.2byte	0x1c
  1a:	0000                	unimp
  1c:	0000                	unimp
  1e:	0000                	unimp
  20:	0066                	c.slli	zero,0x19
  22:	0000                	unimp
  24:	0000                	unimp
  26:	0000                	unimp
  28:	0e42                	slli	t3,t3,0x10
  2a:	4410                	lw	a2,8(s0)
  2c:	0281                	addi	t0,t0,0
  2e:	0488                	addi	a0,sp,576
  30:	0c42                	slli	s8,s8,0x10
  32:	0008                	.2byte	0x8
  34:	5802                	lw	a6,32(sp)
  36:	42c1                	li	t0,16
  38:	0cc8                	addi	a0,sp,596
  3a:	1002                	c.slli	zero,0x20
  3c:	0e42                	slli	t3,t3,0x10
  3e:	0000                	unimp
  40:	000c                	.2byte	0xc
  42:	0000                	unimp
  44:	ffff                	.2byte	0xffff
  46:	ffff                	.2byte	0xffff
  48:	7c010003          	lb	zero,1984(sp)
  4c:	0d01                	addi	s10,s10,0
  4e:	0002                	c.slli64	zero
  50:	0034                	addi	a3,sp,8
  52:	0000                	unimp
  54:	0040                	addi	s0,sp,4
  56:	0000                	unimp
  58:	0082                	c.slli64	ra
  5a:	0000                	unimp
  5c:	0000                	unimp
  5e:	0000                	unimp
  60:	0058                	addi	a4,sp,4
  62:	0000                	unimp
  64:	0000                	unimp
  66:	0000                	unimp
  68:	0e42                	slli	t3,t3,0x10
  6a:	4620                	lw	s0,72(a2)
  6c:	0281                	addi	t0,t0,0
  6e:	0488                	addi	a0,sp,576
  70:	0689                	addi	a3,a3,2
  72:	0c42                	slli	s8,s8,0x10
  74:	0008                	.2byte	0x8
  76:	0a74                	addi	a3,sp,284
  78:	42c1                	li	t0,16
  7a:	0cc8                	addi	a0,sp,596
  7c:	2002                	fld	ft0,0(sp)
  7e:	c942                	sw	a6,144(sp)
  80:	0e42                	slli	t3,t3,0x10
  82:	4200                	lw	s0,0(a2)
  84:	0000000b          	.4byte	0xb
  88:	000c                	.2byte	0xc
  8a:	0000                	unimp
  8c:	ffff                	.2byte	0xffff
  8e:	ffff                	.2byte	0xffff
  90:	7c010003          	lb	zero,1984(sp)
  94:	0d01                	addi	s10,s10,0
  96:	0002                	c.slli64	zero
  98:	002c                	addi	a1,sp,8
  9a:	0000                	unimp
  9c:	0088                	addi	a0,sp,64
  9e:	0000                	unimp
  a0:	00da                	slli	ra,ra,0x16
  a2:	0000                	unimp
  a4:	0000                	unimp
  a6:	0000                	unimp
  a8:	0022                	c.slli	zero,0x8
  aa:	0000                	unimp
  ac:	0000                	unimp
  ae:	0000                	unimp
  b0:	0e42                	slli	t3,t3,0x10
  b2:	4210                	lw	a2,0(a2)
  b4:	0288                	addi	a0,sp,320
  b6:	0c42                	slli	s8,s8,0x10
  b8:	0008                	.2byte	0x8
  ba:	c858                	sw	a4,20(s0)
  bc:	020c                	addi	a1,sp,256
  be:	4210                	lw	a2,0(a2)
  c0:	000e                	c.slli	zero,0x3
  c2:	0000                	unimp
  c4:	0000                	unimp
  c6:	0000                	unimp
  c8:	002c                	addi	a1,sp,8
  ca:	0000                	unimp
  cc:	0088                	addi	a0,sp,64
  ce:	0000                	unimp
  d0:	00fc                	addi	a5,sp,76
  d2:	0000                	unimp
  d4:	0000                	unimp
  d6:	0000                	unimp
  d8:	003a                	c.slli	zero,0xe
  da:	0000                	unimp
  dc:	0000                	unimp
  de:	0000                	unimp
  e0:	0e42                	slli	t3,t3,0x10
  e2:	4210                	lw	a2,0(a2)
  e4:	0288                	addi	a0,sp,320
  e6:	0c42                	slli	s8,s8,0x10
  e8:	0008                	.2byte	0x8
  ea:	0a6c                	addi	a1,sp,284
  ec:	0cc8                	addi	a0,sp,596
  ee:	1002                	c.slli	zero,0x20
  f0:	0e42                	slli	t3,t3,0x10
  f2:	4200                	lw	s0,0(a2)
  f4:	0000000b          	.4byte	0xb
  f8:	002c                	addi	a1,sp,8
  fa:	0000                	unimp
  fc:	0088                	addi	a0,sp,64
  fe:	0000                	unimp
 100:	0136                	slli	sp,sp,0xd
 102:	0000                	unimp
 104:	0000                	unimp
 106:	0000                	unimp
 108:	005c                	addi	a5,sp,4
 10a:	0000                	unimp
 10c:	0000                	unimp
 10e:	0000                	unimp
 110:	0e42                	slli	t3,t3,0x10
 112:	4210                	lw	a2,0(a2)
 114:	0288                	addi	a0,sp,320
 116:	0c42                	slli	s8,s8,0x10
 118:	0008                	.2byte	0x8
 11a:	0a62                	slli	s4,s4,0x18
 11c:	0cc8                	addi	a0,sp,596
 11e:	1002                	c.slli	zero,0x20
 120:	0e42                	slli	t3,t3,0x10
 122:	4200                	lw	s0,0(a2)
 124:	0000000b          	.4byte	0xb
 128:	002c                	addi	a1,sp,8
 12a:	0000                	unimp
 12c:	0088                	addi	a0,sp,64
 12e:	0000                	unimp
 130:	0192                	slli	gp,gp,0x4
 132:	0000                	unimp
 134:	0000                	unimp
 136:	0000                	unimp
 138:	0018                	.2byte	0x18
 13a:	0000                	unimp
 13c:	0000                	unimp
 13e:	0000                	unimp
 140:	0e42                	slli	t3,t3,0x10
 142:	4410                	lw	a2,8(s0)
 144:	0281                	addi	t0,t0,0
 146:	0488                	addi	a0,sp,576
 148:	0c42                	slli	s8,s8,0x10
 14a:	0008                	.2byte	0x8
 14c:	c14a                	sw	s2,128(sp)
 14e:	c842                	sw	a6,16(sp)
 150:	020c                	addi	a1,sp,256
 152:	4210                	lw	a2,0(a2)
 154:	000e                	c.slli	zero,0x3
 156:	0000                	unimp
 158:	002c                	addi	a1,sp,8
 15a:	0000                	unimp
 15c:	0088                	addi	a0,sp,64
 15e:	0000                	unimp
 160:	01aa                	slli	gp,gp,0xa
 162:	0000                	unimp
 164:	0000                	unimp
 166:	0000                	unimp
 168:	003c                	addi	a5,sp,8
 16a:	0000                	unimp
 16c:	0000                	unimp
 16e:	0000                	unimp
 170:	0e42                	slli	t3,t3,0x10
 172:	4210                	lw	a2,0(a2)
 174:	0288                	addi	a0,sp,320
 176:	0c42                	slli	s8,s8,0x10
 178:	0008                	.2byte	0x8
 17a:	0a6e                	slli	s4,s4,0x1b
 17c:	0cc8                	addi	a0,sp,596
 17e:	1002                	c.slli	zero,0x20
 180:	0e42                	slli	t3,t3,0x10
 182:	4200                	lw	s0,0(a2)
 184:	0000000b          	.4byte	0xb
 188:	002c                	addi	a1,sp,8
 18a:	0000                	unimp
 18c:	0088                	addi	a0,sp,64
 18e:	0000                	unimp
 190:	01e6                	slli	gp,gp,0x19
 192:	0000                	unimp
 194:	0000                	unimp
 196:	0000                	unimp
 198:	003c                	addi	a5,sp,8
 19a:	0000                	unimp
 19c:	0000                	unimp
 19e:	0000                	unimp
 1a0:	0e42                	slli	t3,t3,0x10
 1a2:	4210                	lw	a2,0(a2)
 1a4:	0288                	addi	a0,sp,320
 1a6:	0c42                	slli	s8,s8,0x10
 1a8:	0008                	.2byte	0x8
 1aa:	c872                	sw	t3,16(sp)
 1ac:	020c                	addi	a1,sp,256
 1ae:	4210                	lw	a2,0(a2)
 1b0:	000e                	c.slli	zero,0x3
 1b2:	0000                	unimp
 1b4:	0000                	unimp
 1b6:	0000                	unimp
 1b8:	002c                	addi	a1,sp,8
 1ba:	0000                	unimp
 1bc:	0088                	addi	a0,sp,64
 1be:	0000                	unimp
 1c0:	0222                	slli	tp,tp,0x8
 1c2:	0000                	unimp
 1c4:	0000                	unimp
 1c6:	0000                	unimp
 1c8:	0032                	c.slli	zero,0xc
 1ca:	0000                	unimp
 1cc:	0000                	unimp
 1ce:	0000                	unimp
 1d0:	0e42                	slli	t3,t3,0x10
 1d2:	4210                	lw	a2,0(a2)
 1d4:	0288                	addi	a0,sp,320
 1d6:	0c42                	slli	s8,s8,0x10
 1d8:	0008                	.2byte	0x8
 1da:	c868                	sw	a0,84(s0)
 1dc:	020c                	addi	a1,sp,256
 1de:	4210                	lw	a2,0(a2)
 1e0:	000e                	c.slli	zero,0x3
 1e2:	0000                	unimp
 1e4:	0000                	unimp
 1e6:	0000                	unimp
 1e8:	002c                	addi	a1,sp,8
 1ea:	0000                	unimp
 1ec:	0088                	addi	a0,sp,64
 1ee:	0000                	unimp
 1f0:	0254                	addi	a3,sp,260
 1f2:	0000                	unimp
 1f4:	0000                	unimp
 1f6:	0000                	unimp
 1f8:	002a                	c.slli	zero,0xa
 1fa:	0000                	unimp
 1fc:	0000                	unimp
 1fe:	0000                	unimp
 200:	0e42                	slli	t3,t3,0x10
 202:	4210                	lw	a2,0(a2)
 204:	0288                	addi	a0,sp,320
 206:	0c42                	slli	s8,s8,0x10
 208:	0008                	.2byte	0x8
 20a:	0a5c                	addi	a5,sp,276
 20c:	0cc8                	addi	a0,sp,596
 20e:	1002                	c.slli	zero,0x20
 210:	0e42                	slli	t3,t3,0x10
 212:	4200                	lw	s0,0(a2)
 214:	0000000b          	.4byte	0xb
 218:	000c                	.2byte	0xc
 21a:	0000                	unimp
 21c:	ffff                	.2byte	0xffff
 21e:	ffff                	.2byte	0xffff
 220:	7c010003          	lb	zero,1984(sp)
 224:	0d01                	addi	s10,s10,0
 226:	0002                	c.slli64	zero
 228:	0024                	addi	s1,sp,8
 22a:	0000                	unimp
 22c:	0218                	addi	a4,sp,256
 22e:	0000                	unimp
 230:	027e                	slli	tp,tp,0x1f
 232:	0000                	unimp
 234:	0000                	unimp
 236:	0000                	unimp
 238:	0008                	.2byte	0x8
 23a:	0000                	unimp
 23c:	0000                	unimp
 23e:	0000                	unimp
 240:	0e42                	slli	t3,t3,0x10
 242:	4210                	lw	a2,0(a2)
 244:	0288                	addi	a0,sp,320
 246:	0c42                	slli	s8,s8,0x10
 248:	0008                	.2byte	0x8
 24a:	0000                	unimp
 24c:	0000                	unimp
 24e:	0000                	unimp
 250:	002c                	addi	a1,sp,8
 252:	0000                	unimp
 254:	0218                	addi	a4,sp,256
 256:	0000                	unimp
 258:	0286                	slli	t0,t0,0x1
 25a:	0000                	unimp
 25c:	0000                	unimp
 25e:	0000                	unimp
 260:	000e                	c.slli	zero,0x3
 262:	0000                	unimp
 264:	0000                	unimp
 266:	0000                	unimp
 268:	0e42                	slli	t3,t3,0x10
 26a:	4210                	lw	a2,0(a2)
 26c:	0288                	addi	a0,sp,320
 26e:	0c42                	slli	s8,s8,0x10
 270:	0008                	.2byte	0x8
 272:	c844                	sw	s1,20(s0)
 274:	020c                	addi	a1,sp,256
 276:	4210                	lw	a2,0(a2)
 278:	000e                	c.slli	zero,0x3
 27a:	0000                	unimp
 27c:	0000                	unimp
 27e:	0000                	unimp
 280:	002c                	addi	a1,sp,8
 282:	0000                	unimp
 284:	0218                	addi	a4,sp,256
 286:	0000                	unimp
 288:	0294                	addi	a3,sp,320
 28a:	0000                	unimp
 28c:	0000                	unimp
 28e:	0000                	unimp
 290:	000e                	c.slli	zero,0x3
 292:	0000                	unimp
 294:	0000                	unimp
 296:	0000                	unimp
 298:	0e42                	slli	t3,t3,0x10
 29a:	4210                	lw	a2,0(a2)
 29c:	0288                	addi	a0,sp,320
 29e:	0c42                	slli	s8,s8,0x10
 2a0:	0008                	.2byte	0x8
 2a2:	c844                	sw	s1,20(s0)
 2a4:	020c                	addi	a1,sp,256
 2a6:	4210                	lw	a2,0(a2)
 2a8:	000e                	c.slli	zero,0x3
 2aa:	0000                	unimp
 2ac:	0000                	unimp
 2ae:	0000                	unimp
 2b0:	000c                	.2byte	0xc
 2b2:	0000                	unimp
 2b4:	ffff                	.2byte	0xffff
 2b6:	ffff                	.2byte	0xffff
 2b8:	7c010003          	lb	zero,1984(sp)
 2bc:	0d01                	addi	s10,s10,0
 2be:	0002                	c.slli64	zero
 2c0:	0034                	addi	a3,sp,8
 2c2:	0000                	unimp
 2c4:	02b0                	addi	a2,sp,328
 2c6:	0000                	unimp
 2c8:	02a2                	slli	t0,t0,0x8
 2ca:	0000                	unimp
 2cc:	0000                	unimp
 2ce:	0000                	unimp
 2d0:	0046                	c.slli	zero,0x11
 2d2:	0000                	unimp
 2d4:	0000                	unimp
 2d6:	0000                	unimp
 2d8:	0e42                	slli	t3,t3,0x10
 2da:	4450                	lw	a2,12(s0)
 2dc:	0281                	addi	t0,t0,0
 2de:	0488                	addi	a0,sp,576
 2e0:	0c42                	slli	s8,s8,0x10
 2e2:	0008                	.2byte	0x8
 2e4:	0a6c                	addi	a1,sp,284
 2e6:	42c1                	li	t0,16
 2e8:	0cc8                	addi	a0,sp,596
 2ea:	5002                	.2byte	0x5002
 2ec:	0e42                	slli	t3,t3,0x10
 2ee:	4200                	lw	s0,0(a2)
 2f0:	0000000b          	.4byte	0xb
 2f4:	0000                	unimp
 2f6:	0000                	unimp
 2f8:	000c                	.2byte	0xc
 2fa:	0000                	unimp
 2fc:	ffff                	.2byte	0xffff
 2fe:	ffff                	.2byte	0xffff
 300:	7c010003          	lb	zero,1984(sp)
 304:	0d01                	addi	s10,s10,0
 306:	0002                	c.slli64	zero
 308:	002c                	addi	a1,sp,8
 30a:	0000                	unimp
 30c:	02f8                	addi	a4,sp,332
 30e:	0000                	unimp
 310:	02e8                	addi	a0,sp,332
 312:	0000                	unimp
 314:	0000                	unimp
 316:	0000                	unimp
 318:	0066                	c.slli	zero,0x19
 31a:	0000                	unimp
 31c:	0000                	unimp
 31e:	0000                	unimp
 320:	0e6e                	slli	t3,t3,0x1b
 322:	4410                	lw	a2,8(s0)
 324:	0281                	addi	t0,t0,0
 326:	0488                	addi	a0,sp,576
 328:	0c42                	slli	s8,s8,0x10
 32a:	0008                	.2byte	0x8
 32c:	c16c                	sw	a1,68(a0)
 32e:	c842                	sw	a6,16(sp)
 330:	020c                	addi	a1,sp,256
 332:	4210                	lw	a2,0(a2)
 334:	000e                	c.slli	zero,0x3
 336:	0000                	unimp
 338:	002c                	addi	a1,sp,8
 33a:	0000                	unimp
 33c:	02f8                	addi	a4,sp,332
 33e:	0000                	unimp
 340:	034e                	slli	t1,t1,0x13
 342:	0000                	unimp
 344:	0000                	unimp
 346:	0000                	unimp
 348:	0054                	addi	a3,sp,4
 34a:	0000                	unimp
 34c:	0000                	unimp
 34e:	0000                	unimp
 350:	0e42                	slli	t3,t3,0x10
 352:	4210                	lw	a2,0(a2)
 354:	0288                	addi	a0,sp,320
 356:	0c42                	slli	s8,s8,0x10
 358:	0008                	.2byte	0x8
 35a:	4a02                	lw	s4,0(sp)
 35c:	0cc8                	addi	a0,sp,596
 35e:	1002                	c.slli	zero,0x20
 360:	0e42                	slli	t3,t3,0x10
 362:	0000                	unimp
 364:	0000                	unimp
 366:	0000                	unimp
 368:	002c                	addi	a1,sp,8
 36a:	0000                	unimp
 36c:	02f8                	addi	a4,sp,332
 36e:	0000                	unimp
 370:	03a2                	slli	t2,t2,0x8
 372:	0000                	unimp
 374:	0000                	unimp
 376:	0000                	unimp
 378:	0028                	addi	a0,sp,8
 37a:	0000                	unimp
 37c:	0000                	unimp
 37e:	0000                	unimp
 380:	0e42                	slli	t3,t3,0x10
 382:	4410                	lw	a2,8(s0)
 384:	0281                	addi	t0,t0,0
 386:	0488                	addi	a0,sp,576
 388:	0c42                	slli	s8,s8,0x10
 38a:	0008                	.2byte	0x8
 38c:	c15a                	sw	s6,128(sp)
 38e:	c842                	sw	a6,16(sp)
 390:	020c                	addi	a1,sp,256
 392:	4210                	lw	a2,0(a2)
 394:	000e                	c.slli	zero,0x3
 396:	0000                	unimp
 398:	002c                	addi	a1,sp,8
 39a:	0000                	unimp
 39c:	02f8                	addi	a4,sp,332
 39e:	0000                	unimp
 3a0:	03ca                	slli	t2,t2,0x12
 3a2:	0000                	unimp
 3a4:	0000                	unimp
 3a6:	0000                	unimp
 3a8:	0040                	addi	s0,sp,4
 3aa:	0000                	unimp
 3ac:	0000                	unimp
 3ae:	0000                	unimp
 3b0:	0e42                	slli	t3,t3,0x10
 3b2:	4410                	lw	a2,8(s0)
 3b4:	0281                	addi	t0,t0,0
 3b6:	0488                	addi	a0,sp,576
 3b8:	0c42                	slli	s8,s8,0x10
 3ba:	0008                	.2byte	0x8
 3bc:	c172                	sw	t3,128(sp)
 3be:	c842                	sw	a6,16(sp)
 3c0:	020c                	addi	a1,sp,256
 3c2:	4210                	lw	a2,0(a2)
 3c4:	000e                	c.slli	zero,0x3
 3c6:	0000                	unimp
 3c8:	0024                	addi	s1,sp,8
 3ca:	0000                	unimp
 3cc:	02f8                	addi	a4,sp,332
 3ce:	0000                	unimp
 3d0:	040a                	slli	s0,s0,0x2
 3d2:	0000                	unimp
 3d4:	0000                	unimp
 3d6:	0000                	unimp
 3d8:	0012                	c.slli	zero,0x4
 3da:	0000                	unimp
 3dc:	0000                	unimp
 3de:	0000                	unimp
 3e0:	0e42                	slli	t3,t3,0x10
 3e2:	4410                	lw	a2,8(s0)
 3e4:	0281                	addi	t0,t0,0
 3e6:	0488                	addi	a0,sp,576
 3e8:	0c42                	slli	s8,s8,0x10
 3ea:	0008                	.2byte	0x8
 3ec:	0000                	unimp
 3ee:	0000                	unimp
 3f0:	000c                	.2byte	0xc
 3f2:	0000                	unimp
 3f4:	ffff                	.2byte	0xffff
 3f6:	ffff                	.2byte	0xffff
 3f8:	7c010003          	lb	zero,1984(sp)
 3fc:	0d01                	addi	s10,s10,0
 3fe:	0002                	c.slli64	zero
 400:	002c                	addi	a1,sp,8
 402:	0000                	unimp
 404:	03f0                	addi	a2,sp,460
 406:	0000                	unimp
 408:	041c                	addi	a5,sp,512
 40a:	0000                	unimp
 40c:	0000                	unimp
 40e:	0000                	unimp
 410:	0014                	.2byte	0x14
 412:	0000                	unimp
 414:	0000                	unimp
 416:	0000                	unimp
 418:	0e42                	slli	t3,t3,0x10
 41a:	4210                	lw	a2,0(a2)
 41c:	0288                	addi	a0,sp,320
 41e:	0c42                	slli	s8,s8,0x10
 420:	0008                	.2byte	0x8
 422:	c84a                	sw	s2,16(sp)
 424:	020c                	addi	a1,sp,256
 426:	4210                	lw	a2,0(a2)
 428:	000e                	c.slli	zero,0x3
 42a:	0000                	unimp
 42c:	0000                	unimp
	...
